eepromseansign                                                                                                          PAGE 1
  0001                   1     label12 CODE    1h
  0238                   2     label19 CODE    238h
  0002                   3     label21 CODE    2h
  080E                   4     label29 CODE    80Eh
  0456                   5     label38 CODE    456h
  0546                   6     label46 CODE    546h
  0567                   7     label48 CODE    567h
  066E                   8     label56 CODE    66Eh
                         9
                        10             ORG     0h
0000 020800             11     label9: ljmp    label0
0003 00                 12             nop
                        13     label16:
0004 00                 14             nop
0005 00                 15             nop
                        16     label17:
0006 00                 17             nop
0007 00                 18             nop
                        19     label20:
0008 00                 20             nop
                        21     label54:
0009 00                 22             nop
                        23     label33:
000A 00                 24             nop
000B 0528               25             inc     28h
000D 32                 26             reti
                        27     label11:
000E 00                 28             nop
                        29     label40:
000F 00                 30             nop
                        31     label25:
0010 00                 32             nop
                        33     label13:
0011 00                 34             nop
                        35     label39:
0012 00                 36             nop
                        37     label43:
0013 00                 38             nop
0014 00                 39             nop
                        40     label49:
0015 00                 41             nop
                        42     label62:
0016 00                 43             nop
0017 00                 44             nop
0018 00                 45             nop
                        46     label47:
0019 00                 47             nop
001A 00                 48             nop
                        49     label24:
001B 00                 50             nop
001C 00                 51             nop
001D 00                 52             nop
001E 00                 53             nop
                        54     label14:
001F 00                 55             nop
0020 00                 56             nop
0021 00                 57             nop
0022 00                 58             nop
0023 C0D0               59             push    PSW
0025 43D018             60             orl     PSW, #18h
0028 FF                 61             mov     R7, A
0029 10990F             62             jbc     TI, label1
002C AB82               63             mov     R3, DPL
002E AC83               64             mov     R4, DPH
0030 10980F             65             jbc     RI, label2
0033 8B82               66     label6: mov     DPL, R3
0035 8C83               67             mov     DPH, R4
0037 EF                 68     label3: mov     A, R7
0038 D0D0               69             pop     PSW
003A 32                 70             reti
003B E6                 71     label1: mov     A, @R0
003C 60F9               72             jz      label3
003E F599               73             mov     SBUF, A
0040 80F5               74             sjmp    label3
0042 E599               75     label2: mov     A, SBUF
0044 20001B             76             jb      0h, label4
0047 200307             77             jb      3h, label5
004A B402E6             78             cjne    A, #2h, label6
004D D203               79             setb    3h
004F 80E2               80             sjmp    label6
0051 5320F7             81     label5: anl     20h, #0F7h
0054 2480               82             add     A, #80h
0056 50DB               83             jnc     label6
0058 D200               84             setb    0h
005A 23                 85             rl      A
005B FD                 86             mov     R5, A
005C A92E               87             mov     R1, 2Eh
005E AA2F               88             mov     R2, 2Fh
0060 80D1               89             sjmp    label6
0062 8A83               90     label4: mov     DPH, R2
0064 8982               91             mov     DPL, R1
0066 F0                 92             movx    @DPTR, A
0067 120891             93             lcall   label7
006A AA83               94             mov     R2, DPH
006C A982               95             mov     R1, DPL
006E 04                 96             inc     A
006F 70C2               97             jnz     label6
0071 752002             98             mov     20h, #2h
0074 8D82               99             mov     DPL, R5
0076 758300            100             mov     DPH, #0h
0079 E52E              101             mov     A, 2Eh
007B F0                102             movx    @DPTR, A
007C A3                103             inc     DPTR
007D E52F              104             mov     A, 2Fh
007F F0                105             movx    @DPTR, A
0080 892E              106             mov     2Eh, R1
0082 8A2F              107             mov     2Fh, R2
0084 80AD              108             sjmp    label6
0086 00                109             nop
0087 00                110             nop
0088 00                111             nop
0089 00                112             nop
008A 00                113             nop
008B 00                114             nop
008C 00                115             nop
008D 00                116             nop
008E 00                117             nop
008F 00                118             nop
0090 00                119             nop
0091 00                120             nop
0092 00                121             nop
0093 00                122             nop
0094 00                123             nop
0095 00                124             nop
0096 00                125             nop
0097 00                126             nop
0098 00                127             nop
0099 00                128             nop
009A 00                129             nop
009B 00                130             nop
009C 00                131             nop
009D 00                132             nop
009E 00                133             nop
009F 00                134             nop
00A0 00                135             nop
00A1 00                136             nop
00A2 00                137             nop
00A3 00                138             nop
00A4 00                139             nop
00A5 00                140             nop
00A6 00                141             nop
00A7 00                142             nop
00A8 00                143             nop
00A9 00                144             nop
00AA 00                145             nop
00AB 00                146             nop
00AC 00                147             nop
00AD 00                148             nop
00AE 00                149             nop
00AF 00                150             nop
00B0 00                151             nop
00B1 00                152             nop
00B2 00                153             nop
00B3 00                154             nop
00B4 00                155             nop
00B5 00                156             nop
00B6 00                157             nop
00B7 00                158             nop
00B8 00                159             nop
00B9 00                160             nop
00BA 00                161             nop
00BB 00                162             nop
00BC 00                163             nop
00BD 00                164             nop
00BE 00                165             nop
00BF 00                166             nop
00C0 00                167             nop
00C1 00                168             nop
00C2 00                169             nop
00C3 00                170             nop
00C4 00                171             nop
00C5 00                172             nop
00C6 00                173             nop
00C7 00                174             nop
00C8 00                175             nop
00C9 00                176             nop
00CA 00                177             nop
00CB 00                178             nop
00CC 00                179             nop
00CD 00                180             nop
00CE 00                181             nop
00CF 00                182             nop
00D0 00                183             nop
00D1 00                184             nop
00D2 00                185             nop
00D3 00                186             nop
00D4 00                187             nop
00D5 00                188             nop
00D6 00                189             nop
00D7 00                190             nop
00D8 00                191             nop
00D9 00                192             nop
00DA 00                193             nop
00DB 00                194             nop
00DC 00                195             nop
00DD 00                196             nop
00DE 00                197             nop
00DF 00                198             nop
00E0 00                199             nop
00E1 00                200             nop
00E2 00                201             nop
00E3 00                202             nop
00E4 00                203             nop
00E5 00                204             nop
00E6 00                205             nop
00E7 00                206             nop
00E8 00                207             nop
00E9 00                208             nop
00EA 00                209             nop
00EB 00                210             nop
00EC 00                211             nop
00ED 00                212             nop
00EE 00                213             nop
00EF 00                214             nop
00F0 00                215             nop
00F1 00                216             nop
00F2 00                217             nop
00F3 00                218             nop
00F4 00                219             nop
00F5 00                220             nop
00F6 00                221             nop
00F7 00                222             nop
00F8 00                223             nop
00F9 00                224             nop
00FA 00                225             nop
00FB 00                226             nop
00FC 00                227             nop
00FD 00                228             nop
00FE 00                229             nop
00FF 00                230             nop
0100 00                231             nop
0101 00                232             nop
0102 00                233             nop
0103 00                234             nop
0104 00                235             nop
0105 00                236             nop
0106 00                237             nop
0107 00                238             nop
0108 00                239             nop
0109 00                240             nop
010A 00                241             nop
010B 00                242             nop
010C 00                243             nop
010D 00                244             nop
010E 00                245             nop
010F 00                246             nop
0110 00                247             nop
0111 00                248             nop
                       249     label32:
0112 00                250             nop
0113 00                251             nop
0114 00                252             nop
0115 00                253             nop
0116 00                254             nop
0117 00                255             nop
0118 00                256             nop
0119 00                257             nop
011A 00                258             nop
011B 00                259             nop
011C 00                260             nop
011D 00                261             nop
011E 00                262             nop
011F 00                263             nop
0120 00                264             nop
0121 04                265             inc     A
0122 0500              266             inc     0h
0124 04                267             inc     A
0125 03                268             rr      A
0126 020608            269             ljmp    label8
0129 020000            270             ljmp    label9
012C 00                271             nop
012D 00                272             nop
012E 00                273             nop
012F 00                274             nop
0130 0E                275             inc     R6
0131 04                276             inc     A
0132 0E                277             inc     R6
0133 1F                278             dec     R7
0134 08                279             inc     R0
0135 1F                280             dec     R7
0136 0C                281             inc     R4
0137 1F                282             dec     R7
0138 0E                283             inc     R6
0139 0E                284             inc     R6
013A 00                285             nop
013B 00                286             nop
013C 08                287             inc     R0
013D 00                288             nop
013E 020E0E            289             ljmp    label10
0141 04                290             inc     A
0142 0F                291             inc     R7
0143 0E                292             inc     R6
0144 0F                293             inc     R7
0145 1F                294             dec     R7
0146 1F                295             dec     R7
0147 0E                296             inc     R6
0148 110E              297             acall   label11
014A 0E                298             inc     R6
014B 1101              299             acall   label12
014D 1111              300             acall   label13
014F 0E                301             inc     R6
0150 0F                302             inc     R7
0151 0E                303             inc     R6
0152 0F                304             inc     R7
0153 0E                305             inc     R6
0154 1F                306             dec     R7
0155 1111              307             acall   label13
0157 1111              308             acall   label13
0159 111F              309             acall   label14
015B 0E                310             inc     R6
015C 00                311             nop
015D 0E                312             inc     R6
015E 04                313             inc     A
015F 00                314             nop
0160 020001            315             ljmp    label12
0163 00                316             nop
0164 10000C            317             jbc     0h, label15
0167 00                318             nop
0168 0104              319             ajmp    label16
016A 08                320             inc     R0
016B 0106              321             ajmp    label17
016D 00                322             nop
016E 00                323             nop
016F 00                324             nop
0170 00                325             nop
0171 00                326             nop
0172 00                327             nop
                       328     label15:
0173 00                329             nop
0174 020000            330             ljmp    label9
0177 00                331             nop
0178 00                332             nop
0179 00                333             nop
017A 00                334             nop
017B 100401            335             jbc     4h, label18
017E 1F                336             dec     R7
                       337     label18:
017F 00                338             nop
0180 00                339             nop
0181 00                340             nop
0182 00                341             nop
0183 00                342             nop
0184 00                343             nop
0185 00                344             nop
0186 00                345             nop
0187 00                346             nop
0188 00                347             nop
0189 00                348             nop
018A 00                349             nop
018B 00                350             nop
018C 00                351             nop
018D 00                352             nop
018E 00                353             nop
018F 00                354             nop
0190 00                355             nop
0191 00                356             nop
0192 00                357             nop
0193 00                358             nop
0194 00                359             nop
0195 00                360             nop
0196 00                361             nop
0197 00                362             nop
0198 00                363             nop
0199 00                364             nop
019A 00                365             nop
019B 00                366             nop
019C 00                367             nop
019D 00                368             nop
019E 00                369             nop
019F 00                370             nop
01A0 00                371             nop
01A1 00                372             nop
01A2 00                373             nop
01A3 00                374             nop
01A4 00                375             nop
01A5 00                376             nop
01A6 00                377             nop
01A7 00                378             nop
01A8 00                379             nop
01A9 00                380             nop
01AA 00                381             nop
01AB 00                382             nop
01AC 00                383             nop
01AD 00                384             nop
01AE 00                385             nop
01AF 00                386             nop
01B0 00                387             nop
01B1 00                388             nop
01B2 00                389             nop
01B3 00                390             nop
01B4 00                391             nop
01B5 00                392             nop
01B6 00                393             nop
01B7 00                394             nop
01B8 00                395             nop
01B9 00                396             nop
01BA 00                397             nop
01BB 00                398             nop
01BC 00                399             nop
01BD 00                400             nop
01BE 00                401             nop
01BF 00                402             nop
01C0 00                403             nop
01C1 00                404             nop
01C2 00                405             nop
01C3 00                406             nop
01C4 00                407             nop
01C5 00                408             nop
01C6 00                409             nop
01C7 00                410             nop
01C8 00                411             nop
01C9 00                412             nop
01CA 00                413             nop
01CB 00                414             nop
01CC 00                415             nop
01CD 00                416             nop
01CE 00                417             nop
01CF 00                418             nop
01D0 00                419             nop
01D1 00                420             nop
01D2 00                421             nop
01D3 00                422             nop
01D4 00                423             nop
01D5 00                424             nop
01D6 00                425             nop
01D7 00                426             nop
01D8 00                427             nop
01D9 00                428             nop
01DA 00                429             nop
01DB 00                430             nop
01DC 00                431             nop
01DD 00                432             nop
01DE 00                433             nop
01DF 00                434             nop
01E0 00                435             nop
01E1 00                436             nop
01E2 00                437             nop
01E3 00                438             nop
01E4 00                439             nop
01E5 00                440             nop
01E6 00                441             nop
01E7 00                442             nop
01E8 00                443             nop
01E9 00                444             nop
01EA 00                445             nop
01EB 00                446             nop
01EC 00                447             nop
01ED 00                448             nop
01EE 00                449             nop
01EF 00                450             nop
01F0 00                451             nop
01F1 00                452             nop
01F2 00                453             nop
01F3 00                454             nop
01F4 00                455             nop
01F5 00                456             nop
01F6 00                457             nop
01F7 00                458             nop
01F8 00                459             nop
01F9 00                460             nop
01FA 00                461             nop
01FB 00                462             nop
01FC 00                463             nop
01FD 00                464             nop
01FE 00                465             nop
01FF 00                466             nop
0200 00                467             nop
0201 00                468             nop
0202 00                469             nop
0203 00                470             nop
0204 00                471             nop
0205 00                472             nop
0206 00                473             nop
0207 00                474             nop
                       475     label50:
0208 00                476             nop
0209 00                477             nop
020A 00                478             nop
020B 00                479             nop
020C 00                480             nop
020D 00                481             nop
020E 00                482             nop
020F 00                483             nop
0210 00                484             nop
0211 00                485             nop
0212 00                486             nop
0213 00                487             nop
0214 00                488             nop
0215 00                489             nop
0216 00                490             nop
0217 00                491             nop
0218 00                492             nop
0219 00                493             nop
021A 00                494             nop
021B 00                495             nop
021C 00                496             nop
021D 00                497             nop
021E 00                498             nop
021F 00                499             nop
0220 00                500             nop
0221 04                501             inc     A
0222 050A              502             inc     0Ah
0224 1E                503             dec     R6
0225 13                504             rrc     A
0226 0504              505             inc     4h
0228 04                506             inc     A
0229 04                507             inc     A
022A 1504              508             dec     4h
022C 00                509             nop
022D 00                510             nop
022E 00                511             nop
022F 101106            512             jbc     11h, label19
0232 1108              513             acall   label20
0234 0C                514             inc     R4
0235 0102              515             ajmp    label21
0237 101111            516             jbc     11h, label22
023A 06                517             inc     @R0
023B 06                518             inc     @R0
023C 04                519             inc     A
023D 00                520             nop
023E 04                521             inc     A
023F 1111              522             acall   label13
0241 0A                523             inc     R2
0242 121112            524             lcall   label23
0245 0101              525             ajmp    label12
0247 1111              526             acall   label13
0249 04                527             inc     A
024A 04                528             inc     A
                       529     label22:
024B 09                530             inc     R1
024C 011B              531             ajmp    label24
024E 1111              532             acall   label13
0250 1111              533             acall   label13
0252 1111              534             acall   label13
0254 04                535             inc     A
0255 1111              536             acall   label13
0257 1111              537             acall   label13
0259 1110              538             acall   label25
025B 020708            539             ljmp    label26
025E 0E                540             inc     R6
025F 0E                541             inc     R6
0260 04                542             inc     A
0261 00                543             nop
0262 0100              544             ajmp    label9
0264 100012            545             jbc     0h, label27
0267 1E                546             dec     R6
0268 0100              547             ajmp    label9
026A 00                548             nop
026B 0104              549             ajmp    label16
026D 00                550             nop
026E 00                551             nop
026F 00                552             nop
0270 00                553             nop
0271 00                554             nop
0272 00                555             nop
0273 00                556             nop
0274 020000            557             ljmp    label9
0277 00                558             nop
0278 00                559             nop
                       560     label27:
0279 00                561             nop
027A 00                562             nop
027B 08                563             inc     R0
027C 04                564             inc     A
027D 021F10            565             ljmp    label28
0280 00                566             nop
0281 00                567             nop
0282 00                568             nop
0283 00                569             nop
0284 00                570             nop
0285 00                571             nop
0286 00                572             nop
0287 00                573             nop
0288 00                574             nop
0289 00                575             nop
028A 00                576             nop
028B 00                577             nop
028C 00                578             nop
028D 00                579             nop
028E 00                580             nop
028F 00                581             nop
0290 00                582             nop
0291 00                583             nop
0292 00                584             nop
0293 00                585             nop
0294 00                586             nop
0295 00                587             nop
0296 00                588             nop
0297 00                589             nop
0298 00                590             nop
0299 00                591             nop
029A 00                592             nop
029B 00                593             nop
029C 00                594             nop
029D 00                595             nop
029E 00                596             nop
029F 00                597             nop
02A0 00                598             nop
02A1 00                599             nop
02A2 00                600             nop
02A3 00                601             nop
02A4 00                602             nop
02A5 00                603             nop
02A6 00                604             nop
02A7 00                605             nop
02A8 00                606             nop
02A9 00                607             nop
02AA 00                608             nop
02AB 00                609             nop
02AC 00                610             nop
02AD 00                611             nop
02AE 00                612             nop
02AF 00                613             nop
02B0 00                614             nop
02B1 00                615             nop
02B2 00                616             nop
02B3 00                617             nop
02B4 00                618             nop
02B5 00                619             nop
02B6 00                620             nop
02B7 00                621             nop
02B8 00                622             nop
02B9 00                623             nop
02BA 00                624             nop
02BB 00                625             nop
02BC 00                626             nop
02BD 00                627             nop
02BE 00                628             nop
02BF 00                629             nop
02C0 00                630             nop
02C1 00                631             nop
02C2 00                632             nop
02C3 00                633             nop
02C4 00                634             nop
02C5 00                635             nop
02C6 00                636             nop
02C7 00                637             nop
02C8 00                638             nop
02C9 00                639             nop
02CA 00                640             nop
02CB 00                641             nop
02CC 00                642             nop
02CD 00                643             nop
02CE 00                644             nop
02CF 00                645             nop
02D0 00                646             nop
02D1 00                647             nop
02D2 00                648             nop
02D3 00                649             nop
02D4 00                650             nop
02D5 00                651             nop
02D6 00                652             nop
02D7 00                653             nop
02D8 00                654             nop
02D9 00                655             nop
02DA 00                656             nop
02DB 00                657             nop
02DC 00                658             nop
02DD 00                659             nop
02DE 00                660             nop
02DF 00                661             nop
02E0 00                662             nop
02E1 00                663             nop
02E2 00                664             nop
02E3 00                665             nop
02E4 00                666             nop
02E5 00                667             nop
02E6 00                668             nop
02E7 00                669             nop
02E8 00                670             nop
02E9 00                671             nop
02EA 00                672             nop
02EB 00                673             nop
02EC 00                674             nop
02ED 00                675             nop
02EE 00                676             nop
02EF 00                677             nop
02F0 00                678             nop
02F1 00                679             nop
02F2 00                680             nop
02F3 00                681             nop
02F4 00                682             nop
02F5 00                683             nop
02F6 00                684             nop
02F7 00                685             nop
02F8 00                686             nop
02F9 00                687             nop
02FA 00                688             nop
02FB 00                689             nop
02FC 00                690             nop
02FD 00                691             nop
02FE 00                692             nop
02FF 00                693             nop
0300 00                694             nop
0301 00                695             nop
0302 00                696             nop
0303 00                697             nop
0304 00                698             nop
0305 00                699             nop
0306 00                700             nop
0307 00                701             nop
                       702     label34:
0308 00                703             nop
0309 00                704             nop
030A 00                705             nop
030B 00                706             nop
030C 00                707             nop
030D 00                708             nop
030E 00                709             nop
030F 00                710             nop
0310 00                711             nop
0311 00                712             nop
0312 00                713             nop
0313 00                714             nop
0314 00                715             nop
0315 00                716             nop
0316 00                717             nop
0317 00                718             nop
0318 00                719             nop
0319 00                720             nop
031A 00                721             nop
031B 00                722             nop
031C 00                723             nop
031D 00                724             nop
031E 00                725             nop
031F 00                726             nop
0320 00                727             nop
0321 04                728             inc     A
0322 051F              729             inc     1Fh
0324 0508              730             inc     8h
0326 0502              731             inc     2h
0328 02080E            732             ljmp    label29
032B 04                733             inc     A
032C 00                734             nop
032D 00                735             nop
032E 00                736             nop
032F 08                737             inc     R0
0330 19                738             dec     R1
0331 04                739             inc     A
0332 10040A            740             jbc     4h, label30
0335 0F                741             inc     R7
0336 0108              742             ajmp    label20
0338 1111              743             acall   label13
033A 06                744             inc     @R0
033B 06                745             inc     @R0
033C 021F08            746             ljmp    label31
                       747     label30:
033F 08                748             inc     R0
0340 1511              749             dec     11h
0342 120112            750             lcall   label32
0345 0101              751             ajmp    label12
0347 0111              752             ajmp    label13
0349 04                753             inc     A
034A 04                754             inc     A
034B 0501              755             inc     1h
034D 1513              756             dec     13h
034F 1111              757             acall   label13
0351 1111              758             acall   label13
0353 0104              759             ajmp    label16
0355 1111              760             acall   label13
0357 110A              761             acall   label33
0359 0A                762             inc     R2
035A 08                763             inc     R0
035B 020308            764             ljmp    label34
035E 1511              765             dec     11h
0360 08                766             inc     R0
0361 0E                767             inc     R6
0362 0D                768             inc     R5
0363 0E                769             inc     R6
0364 16                770             dec     @R0
0365 0E                771             inc     R6
0366 02110D            772             ljmp    label35
0369 06                773             inc     @R0
036A 0C                774             inc     R4
036B 09                775             inc     R1
036C 04                776             inc     A
036D 0B                777             inc     R3
036E 0D                778             inc     R5
036F 0E                779             inc     R6
0370 0F                780             inc     R7
0371 16                781             dec     @R0
0372 0D                782             inc     R5
0373 0E                783             inc     R6
0374 07                784             inc     @R1
0375 1111              785             acall   label13
0377 1111              786             acall   label13
0379 111F              787             acall   label14
037B 08                788             inc     R0
037C 04                789             inc     A
037D 021F09            790             ljmp    label36
0380 00                791             nop
0381 00                792             nop
0382 00                793             nop
0383 00                794             nop
0384 00                795             nop
0385 00                796             nop
0386 00                797             nop
0387 00                798             nop
0388 00                799             nop
0389 00                800             nop
038A 00                801             nop
038B 00                802             nop
038C 00                803             nop
038D 00                804             nop
038E 00                805             nop
038F 00                806             nop
0390 00                807             nop
0391 00                808             nop
0392 00                809             nop
0393 00                810             nop
0394 00                811             nop
0395 00                812             nop
0396 00                813             nop
0397 00                814             nop
0398 00                815             nop
0399 00                816             nop
039A 00                817             nop
039B 00                818             nop
039C 00                819             nop
039D 00                820             nop
039E 00                821             nop
039F 00                822             nop
03A0 00                823             nop
03A1 00                824             nop
03A2 00                825             nop
03A3 00                826             nop
03A4 00                827             nop
03A5 00                828             nop
03A6 00                829             nop
03A7 00                830             nop
03A8 00                831             nop
03A9 00                832             nop
03AA 00                833             nop
03AB 00                834             nop
03AC 00                835             nop
03AD 00                836             nop
03AE 00                837             nop
03AF 00                838             nop
03B0 00                839             nop
03B1 00                840             nop
03B2 00                841             nop
03B3 00                842             nop
03B4 00                843             nop
03B5 00                844             nop
03B6 00                845             nop
03B7 00                846             nop
03B8 00                847             nop
03B9 00                848             nop
03BA 00                849             nop
03BB 00                850             nop
03BC 00                851             nop
03BD 00                852             nop
03BE 00                853             nop
03BF 00                854             nop
03C0 00                855             nop
03C1 00                856             nop
03C2 00                857             nop
03C3 00                858             nop
03C4 00                859             nop
03C5 00                860             nop
03C6 00                861             nop
03C7 00                862             nop
03C8 00                863             nop
03C9 00                864             nop
03CA 00                865             nop
03CB 00                866             nop
03CC 00                867             nop
03CD 00                868             nop
03CE 00                869             nop
03CF 00                870             nop
03D0 00                871             nop
03D1 00                872             nop
03D2 00                873             nop
03D3 00                874             nop
03D4 00                875             nop
03D5 00                876             nop
03D6 00                877             nop
03D7 00                878             nop
03D8 00                879             nop
03D9 00                880             nop
03DA 00                881             nop
03DB 00                882             nop
03DC 00                883             nop
03DD 00                884             nop
03DE 00                885             nop
03DF 00                886             nop
03E0 00                887             nop
03E1 00                888             nop
03E2 00                889             nop
03E3 00                890             nop
03E4 00                891             nop
03E5 00                892             nop
03E6 00                893             nop
03E7 00                894             nop
03E8 00                895             nop
03E9 00                896             nop
03EA 00                897             nop
03EB 00                898             nop
03EC 00                899             nop
03ED 00                900             nop
03EE 00                901             nop
03EF 00                902             nop
03F0 00                903             nop
03F1 00                904             nop
03F2 00                905             nop
03F3 00                906             nop
03F4 00                907             nop
03F5 00                908             nop
03F6 00                909             nop
03F7 00                910             nop
03F8 00                911             nop
03F9 00                912             nop
03FA 00                913             nop
03FB 00                914             nop
03FC 00                915             nop
03FD 00                916             nop
03FE 00                917             nop
03FF 00                918             nop
0400 00                919             nop
0401 00                920             nop
0402 00                921             nop
0403 00                922             nop
0404 00                923             nop
0405 00                924             nop
0406 00                925             nop
0407 00                926             nop
0408 00                927             nop
0409 00                928             nop
040A 00                929             nop
040B 00                930             nop
040C 00                931             nop
040D 00                932             nop
040E 00                933             nop
040F 00                934             nop
0410 00                935             nop
0411 00                936             nop
0412 00                937             nop
0413 00                938             nop
0414 00                939             nop
0415 00                940             nop
0416 00                941             nop
0417 00                942             nop
0418 00                943             nop
0419 00                944             nop
041A 00                945             nop
041B 00                946             nop
041C 00                947             nop
041D 00                948             nop
                       949     label60:
041E 00                950             nop
041F 00                951             nop
0420 00                952             nop
0421 04                953             inc     A
0422 00                954             nop
0423 0A                955             inc     R2
0424 0E                956             inc     R6
0425 04                957             inc     A
0426 020002            958             ljmp    label21
0429 08                959             inc     R0
042A 04                960             inc     A
042B 1F                961             dec     R7
042C 00                962             nop
042D 1F                963             dec     R7
042E 00                964             nop
042F 04                965             inc     A
0430 1504              966             dec     4h
0432 08                967             inc     R0
0433 08                968             inc     R0
0434 09                969             inc     R1
0435 100F04            970             jbc     0Fh, label37
0438 0E                971             inc     R6
0439 1E                972             dec     R6
043A 00                973             nop
043B 00                974             nop
                       975     label37:
043C 0100              976             ajmp    label9
043E 100415            977             jbc     4h, label38
0441 110E              978             acall   label11
0443 0112              979             ajmp    label39
0445 0F                980             inc     R7
0446 0F                981             inc     R7
0447 011F              982             ajmp    label14
0449 04                983             inc     A
044A 04                984             inc     A
044B 03                985             rr      A
044C 0111              986             ajmp    label13
044E 1511              987             dec     11h
0450 0F                988             inc     R7
0451 110F              989             acall   label40
0453 0E                990             inc     R6
0454 04                991             inc     A
0455 1111              992             acall   label13
0457 1504              993             dec     4h
0459 04                994             inc     A
045A 04                995             inc     A
045B 020508            996             ljmp    label41
045E 04                997             inc     A
045F 1F                998             dec     R7
0460 00                999             nop
0461 101301           1000             jbc     13h, label42
0464 19               1001             dec     R1
                      1002     label42:
0465 110F             1003             acall   label40
0467 1113             1004             acall   label43
0469 04               1005             inc     A
046A 08               1006             inc     R0
046B 0504             1007             inc     4h
046D 1513             1008             dec     13h
046F 1111             1009             acall   label13
0471 19               1010             dec     R1
0472 13               1011             rrc     A
0473 0102             1012             ajmp    label21
0475 1111             1013             acall   label13
0477 110A             1014             acall   label33
0479 1108             1015             acall   label20
047B 04               1016             inc     A
047C 04               1017             inc     A
047D 04               1018             inc     A
047E 1F               1019             dec     R7
047F 0500             1020             inc     0h
0481 00               1021             nop
0482 00               1022             nop
0483 00               1023             nop
0484 00               1024             nop
0485 00               1025             nop
0486 00               1026             nop
0487 00               1027             nop
0488 00               1028             nop
0489 00               1029             nop
048A 00               1030             nop
048B 00               1031             nop
048C 00               1032             nop
048D 00               1033             nop
048E 00               1034             nop
048F 00               1035             nop
0490 00               1036             nop
0491 00               1037             nop
0492 00               1038             nop
0493 00               1039             nop
0494 00               1040             nop
0495 00               1041             nop
0496 00               1042             nop
0497 00               1043             nop
0498 00               1044             nop
0499 00               1045             nop
049A 00               1046             nop
049B 00               1047             nop
049C 00               1048             nop
049D 00               1049             nop
049E 00               1050             nop
049F 00               1051             nop
04A0 00               1052             nop
04A1 00               1053             nop
04A2 00               1054             nop
04A3 00               1055             nop
04A4 00               1056             nop
04A5 00               1057             nop
04A6 00               1058             nop
04A7 00               1059             nop
04A8 00               1060             nop
04A9 00               1061             nop
04AA 00               1062             nop
04AB 00               1063             nop
04AC 00               1064             nop
04AD 00               1065             nop
04AE 00               1066             nop
04AF 00               1067             nop
04B0 00               1068             nop
04B1 00               1069             nop
04B2 00               1070             nop
04B3 00               1071             nop
04B4 00               1072             nop
04B5 00               1073             nop
04B6 00               1074             nop
04B7 00               1075             nop
04B8 00               1076             nop
04B9 00               1077             nop
04BA 00               1078             nop
04BB 00               1079             nop
04BC 00               1080             nop
04BD 00               1081             nop
04BE 00               1082             nop
04BF 00               1083             nop
04C0 00               1084             nop
04C1 00               1085             nop
04C2 00               1086             nop
04C3 00               1087             nop
04C4 00               1088             nop
04C5 00               1089             nop
04C6 00               1090             nop
04C7 00               1091             nop
04C8 00               1092             nop
04C9 00               1093             nop
04CA 00               1094             nop
04CB 00               1095             nop
04CC 00               1096             nop
04CD 00               1097             nop
04CE 00               1098             nop
04CF 00               1099             nop
04D0 00               1100             nop
04D1 00               1101             nop
04D2 00               1102             nop
04D3 00               1103             nop
04D4 00               1104             nop
04D5 00               1105             nop
04D6 00               1106             nop
04D7 00               1107             nop
04D8 00               1108             nop
04D9 00               1109             nop
04DA 00               1110             nop
04DB 00               1111             nop
04DC 00               1112             nop
04DD 00               1113             nop
04DE 00               1114             nop
04DF 00               1115             nop
04E0 00               1116             nop
04E1 00               1117             nop
04E2 00               1118             nop
04E3 00               1119             nop
04E4 00               1120             nop
04E5 00               1121             nop
04E6 00               1122             nop
04E7 00               1123             nop
04E8 00               1124             nop
04E9 00               1125             nop
04EA 00               1126             nop
04EB 00               1127             nop
04EC 00               1128             nop
04ED 00               1129             nop
04EE 00               1130             nop
04EF 00               1131             nop
04F0 00               1132             nop
04F1 00               1133             nop
04F2 00               1134             nop
04F3 00               1135             nop
04F4 00               1136             nop
04F5 00               1137             nop
04F6 00               1138             nop
04F7 00               1139             nop
04F8 00               1140             nop
04F9 00               1141             nop
04FA 00               1142             nop
04FB 00               1143             nop
04FC 00               1144             nop
04FD 00               1145             nop
04FE 00               1146             nop
04FF 00               1147             nop
0500 00               1148             nop
0501 00               1149             nop
0502 00               1150             nop
0503 00               1151             nop
0504 00               1152             nop
0505 00               1153             nop
0506 00               1154             nop
0507 00               1155             nop
                      1156     label41:
0508 00               1157             nop
0509 00               1158             nop
050A 00               1159             nop
050B 00               1160             nop
050C 00               1161             nop
050D 00               1162             nop
050E 00               1163             nop
050F 00               1164             nop
0510 00               1165             nop
0511 00               1166             nop
0512 00               1167             nop
0513 00               1168             nop
0514 00               1169             nop
0515 00               1170             nop
0516 00               1171             nop
0517 00               1172             nop
0518 00               1173             nop
0519 00               1174             nop
051A 00               1175             nop
051B 00               1176             nop
051C 00               1177             nop
051D 00               1178             nop
051E 00               1179             nop
051F 00               1180             nop
0520 00               1181             nop
0521 00               1182             nop
0522 00               1183             nop
0523 1F               1184             dec     R7
0524 14               1185             dec     A
0525 021500           1186             ljmp    label44
0528 02080E           1187             ljmp    label29
052B 04               1188             inc     A
052C 06               1189             inc     @R0
052D 00               1190             nop
052E 00               1191             nop
052F 021304           1192             ljmp    label45
0532 04               1193             inc     A
0533 101F10           1194             jbc     1Fh, label46
0536 1104             1195             acall   label16
0538 1110             1196             acall   label25
053A 06               1197             inc     @R0
053B 06               1198             inc     @R0
053C 021F08           1199             ljmp    label31
053F 04               1200             inc     A
0540 0D               1201             inc     R5
0541 1F               1202             dec     R7
0542 120112           1203             lcall   label32
0545 0101             1204             ajmp    label12
0547 19               1205             dec     R1
0548 1104             1206             acall   label16
054A 04               1207             inc     A
054B 0501             1208             inc     1h
054D 1119             1209             acall   label47
054F 1101             1210             acall   label12
0551 1505             1211             dec     5h
0553 100411           1212             jbc     4h, label48
0556 1115             1213             acall   label49
0558 0A               1214             inc     R2
0559 04               1215             inc     A
055A 020208           1216             ljmp    label50
055D 08               1217             inc     R0
055E 04               1218             inc     A
055F 1100             1219             acall   label9
0561 1E               1220             dec     R6
0562 1101             1221             acall   label12
0564 111F             1222             acall   label14
0566 021E11           1223             ljmp    label51
0569 04               1224             inc     A
056A 08               1225             inc     R0
056B 03               1226             rr      A
056C 04               1227             inc     A
056D 1511             1228             dec     11h
056F 110F             1229             acall   label40
0571 1E               1230             dec     R6
0572 010E             1231             ajmp    label11
0574 021111           1232             ljmp    label52
0577 1504             1233             dec     4h
0579 1E               1234             dec     R6
057A 04               1235             inc     A
057B 08               1236             inc     R0
057C 1502             1237             dec     2h
057E 1F               1238             dec     R7
057F 03               1239             rr      A
0580 00               1240             nop
0581 00               1241             nop
0582 00               1242             nop
0583 00               1243             nop
0584 00               1244             nop
0585 00               1245             nop
0586 00               1246             nop
0587 00               1247             nop
0588 00               1248             nop
0589 00               1249             nop
058A 00               1250             nop
058B 00               1251             nop
058C 00               1252             nop
058D 00               1253             nop
058E 00               1254             nop
058F 00               1255             nop
0590 00               1256             nop
0591 00               1257             nop
0592 00               1258             nop
0593 00               1259             nop
0594 00               1260             nop
0595 00               1261             nop
0596 00               1262             nop
0597 00               1263             nop
0598 00               1264             nop
0599 00               1265             nop
059A 00               1266             nop
059B 00               1267             nop
059C 00               1268             nop
059D 00               1269             nop
059E 00               1270             nop
059F 00               1271             nop
05A0 00               1272             nop
05A1 00               1273             nop
05A2 00               1274             nop
05A3 00               1275             nop
05A4 00               1276             nop
05A5 00               1277             nop
05A6 00               1278             nop
05A7 00               1279             nop
05A8 00               1280             nop
05A9 00               1281             nop
05AA 00               1282             nop
05AB 00               1283             nop
05AC 00               1284             nop
05AD 00               1285             nop
05AE 00               1286             nop
05AF 00               1287             nop
05B0 00               1288             nop
05B1 00               1289             nop
05B2 00               1290             nop
05B3 00               1291             nop
05B4 00               1292             nop
05B5 00               1293             nop
05B6 00               1294             nop
05B7 00               1295             nop
05B8 00               1296             nop
05B9 00               1297             nop
05BA 00               1298             nop
05BB 00               1299             nop
05BC 00               1300             nop
05BD 00               1301             nop
05BE 00               1302             nop
05BF 00               1303             nop
05C0 00               1304             nop
05C1 00               1305             nop
05C2 00               1306             nop
05C3 00               1307             nop
05C4 00               1308             nop
05C5 00               1309             nop
05C6 00               1310             nop
05C7 00               1311             nop
05C8 00               1312             nop
05C9 00               1313             nop
05CA 00               1314             nop
05CB 00               1315             nop
05CC 00               1316             nop
05CD 00               1317             nop
05CE 00               1318             nop
05CF 00               1319             nop
05D0 00               1320             nop
05D1 00               1321             nop
05D2 00               1322             nop
05D3 00               1323             nop
05D4 00               1324             nop
05D5 00               1325             nop
05D6 00               1326             nop
05D7 00               1327             nop
05D8 00               1328             nop
05D9 00               1329             nop
05DA 00               1330             nop
05DB 00               1331             nop
05DC 00               1332             nop
05DD 00               1333             nop
05DE 00               1334             nop
05DF 00               1335             nop
05E0 00               1336             nop
05E1 00               1337             nop
05E2 00               1338             nop
05E3 00               1339             nop
05E4 00               1340             nop
05E5 00               1341             nop
05E6 00               1342             nop
05E7 00               1343             nop
05E8 00               1344             nop
05E9 00               1345             nop
05EA 00               1346             nop
05EB 00               1347             nop
05EC 00               1348             nop
05ED 00               1349             nop
05EE 00               1350             nop
05EF 00               1351             nop
05F0 00               1352             nop
05F1 00               1353             nop
05F2 00               1354             nop
05F3 00               1355             nop
05F4 00               1356             nop
05F5 00               1357             nop
05F6 00               1358             nop
05F7 00               1359             nop
05F8 00               1360             nop
05F9 00               1361             nop
05FA 00               1362             nop
05FB 00               1363             nop
05FC 00               1364             nop
05FD 00               1365             nop
05FE 00               1366             nop
05FF 00               1367             nop
0600 00               1368             nop
0601 00               1369             nop
0602 00               1370             nop
0603 00               1371             nop
0604 00               1372             nop
0605 00               1373             nop
0606 00               1374             nop
0607 00               1375             nop
0608 00               1376     label8: nop
0609 00               1377             nop
060A 00               1378             nop
060B 00               1379             nop
060C 00               1380             nop
060D 00               1381             nop
060E 00               1382             nop
060F 00               1383             nop
0610 00               1384             nop
0611 00               1385             nop
0612 00               1386             nop
0613 00               1387             nop
0614 00               1388             nop
0615 00               1389             nop
0616 00               1390             nop
0617 00               1391             nop
0618 00               1392             nop
0619 00               1393             nop
061A 00               1394             nop
061B 00               1395             nop
061C 00               1396             nop
061D 00               1397             nop
061E 00               1398             nop
061F 00               1399             nop
0620 00               1400             nop
0621 04               1401             inc     A
0622 00               1402             nop
0623 0A               1403             inc     R2
0624 0F               1404             inc     R7
0625 19               1405             dec     R1
0626 09               1406             inc     R1
0627 00               1407             nop
0628 04               1408             inc     A
0629 04               1409             inc     A
062A 1504             1410             dec     4h
062C 06               1411             inc     @R0
062D 00               1412             nop
062E 06               1413             inc     @R0
062F 0111             1414             ajmp    label13
0631 04               1415             inc     A
0632 021108           1416             ljmp    label53
0635 1111             1417             acall   label13
0637 04               1418             inc     A
0638 1108             1419             acall   label20
063A 06               1420             inc     @R0
063B 06               1421             inc     @R0
063C 04               1422             inc     A
063D 00               1423             nop
063E 04               1424             inc     A
063F 00               1425             nop
0640 0111             1426             ajmp    label13
0642 121112           1427             lcall   label23
0645 0101             1428             ajmp    label12
0647 1111             1429             acall   label13
0649 04               1430             inc     A
064A 0509             1431             inc     9h
064C 0111             1432             ajmp    label13
064E 1111             1433             acall   label13
0650 0109             1434             ajmp    label54
0652 09               1435             inc     R1
0653 1104             1436             acall   label16
0655 110A             1437             acall   label33
0657 1511             1438             dec     11h
0659 04               1439             inc     A
065A 0102             1440             ajmp    label21
065C 100804           1441             jbc     8h, label55
065F 0E               1442             inc     R6
0660 00               1443             nop
0661 1111             1444             acall   label13
                      1445     label55:
0663 1111             1446             acall   label13
0665 0102             1447             ajmp    label21
0667 101104           1448             jbc     11h, label56
066A 09               1449             inc     R1
066B 0504             1450             inc     4h
066D 1511             1451             dec     11h
066F 1101             1452             acall   label12
0671 100110           1453             jbc     1h, label57
0674 12190A           1454             lcall   label58
0677 150A             1455             dec     0Ah
0679 100208           1456             jbc     2h, label57
067C 0E               1457             inc     R6
067D 021F0F           1458             ljmp    label59
0680 00               1459             nop
0681 00               1460             nop
0682 00               1461             nop
0683 00               1462             nop
                      1463     label57:
0684 00               1464             nop
0685 00               1465             nop
0686 00               1466             nop
0687 00               1467             nop
0688 00               1468             nop
0689 00               1469             nop
068A 00               1470             nop
068B 00               1471             nop
068C 00               1472             nop
068D 00               1473             nop
068E 00               1474             nop
068F 00               1475             nop
0690 00               1476             nop
0691 00               1477             nop
0692 00               1478             nop
0693 00               1479             nop
0694 00               1480             nop
0695 00               1481             nop
0696 00               1482             nop
0697 00               1483             nop
0698 00               1484             nop
0699 00               1485             nop
069A 00               1486             nop
069B 00               1487             nop
069C 00               1488             nop
069D 00               1489             nop
069E 00               1490             nop
069F 00               1491             nop
06A0 00               1492             nop
06A1 00               1493             nop
06A2 00               1494             nop
06A3 00               1495             nop
06A4 00               1496             nop
06A5 00               1497             nop
06A6 00               1498             nop
06A7 00               1499             nop
06A8 00               1500             nop
06A9 00               1501             nop
06AA 00               1502             nop
06AB 00               1503             nop
06AC 00               1504             nop
06AD 00               1505             nop
06AE 00               1506             nop
06AF 00               1507             nop
06B0 00               1508             nop
06B1 00               1509             nop
06B2 00               1510             nop
06B3 00               1511             nop
06B4 00               1512             nop
06B5 00               1513             nop
06B6 00               1514             nop
06B7 00               1515             nop
06B8 00               1516             nop
06B9 00               1517             nop
06BA 00               1518             nop
06BB 00               1519             nop
06BC 00               1520             nop
06BD 00               1521             nop
06BE 00               1522             nop
06BF 00               1523             nop
06C0 00               1524             nop
06C1 00               1525             nop
06C2 00               1526             nop
06C3 00               1527             nop
06C4 00               1528             nop
06C5 00               1529             nop
06C6 00               1530             nop
06C7 00               1531             nop
06C8 00               1532             nop
06C9 00               1533             nop
06CA 00               1534             nop
06CB 00               1535             nop
06CC 00               1536             nop
06CD 00               1537             nop
06CE 00               1538             nop
06CF 00               1539             nop
06D0 00               1540             nop
06D1 00               1541             nop
06D2 00               1542             nop
06D3 00               1543             nop
06D4 00               1544             nop
06D5 00               1545             nop
06D6 00               1546             nop
06D7 00               1547             nop
06D8 00               1548             nop
06D9 00               1549             nop
06DA 00               1550             nop
06DB 00               1551             nop
06DC 00               1552             nop
06DD 00               1553             nop
06DE 00               1554             nop
06DF 00               1555             nop
06E0 00               1556             nop
06E1 00               1557             nop
06E2 00               1558             nop
06E3 00               1559             nop
06E4 00               1560             nop
06E5 00               1561             nop
06E6 00               1562             nop
06E7 00               1563             nop
06E8 00               1564             nop
06E9 00               1565             nop
06EA 00               1566             nop
06EB 00               1567             nop
06EC 00               1568             nop
06ED 00               1569             nop
06EE 00               1570             nop
06EF 00               1571             nop
06F0 00               1572             nop
06F1 00               1573             nop
06F2 00               1574             nop
06F3 00               1575             nop
06F4 00               1576             nop
06F5 00               1577             nop
06F6 00               1578             nop
06F7 00               1579             nop
06F8 00               1580             nop
06F9 00               1581             nop
06FA 00               1582             nop
06FB 00               1583             nop
06FC 00               1584             nop
06FD 00               1585             nop
06FE 00               1586             nop
06FF 00               1587             nop
0700 00               1588             nop
0701 00               1589             nop
0702 00               1590             nop
0703 00               1591             nop
0704 00               1592             nop
0705 00               1593             nop
0706 00               1594             nop
0707 00               1595             nop
                      1596     label26:
0708 00               1597             nop
0709 00               1598             nop
070A 00               1599             nop
070B 00               1600             nop
070C 00               1601             nop
070D 00               1602             nop
070E 00               1603             nop
070F 00               1604             nop
0710 00               1605             nop
0711 00               1606             nop
0712 00               1607             nop
0713 00               1608             nop
0714 00               1609             nop
0715 00               1610             nop
0716 00               1611             nop
0717 00               1612             nop
0718 00               1613             nop
0719 00               1614             nop
071A 00               1615             nop
071B 00               1616             nop
071C 00               1617             nop
071D 00               1618             nop
071E 00               1619             nop
071F 00               1620             nop
0720 00               1621             nop
0721 04               1622             inc     A
0722 00               1623             nop
0723 00               1624             nop
0724 04               1625             inc     A
0725 18               1626             dec     R0
0726 16               1627             dec     @R0
0727 00               1628             nop
0728 08               1629             inc     R0
0729 020000           1630             ljmp    label9
072C 0100             1631             ajmp    label9
072E 06               1632             inc     @R0
072F 00               1633             nop
0730 0E               1634             inc     R6
0731 0E               1635             inc     R6
0732 1F               1636             dec     R7
0733 0E               1637             inc     R6
0734 08               1638             inc     R0
0735 0E               1639             inc     R6
0736 0E               1640             inc     R6
0737 04               1641             inc     A
0738 0E               1642             inc     R6
0739 06               1643             inc     @R0
073A 00               1644             nop
073B 0108             1645             ajmp    label20
073D 00               1646             nop
073E 02041E           1647             ljmp    label60
0741 110F             1648             acall   label40
0743 0E               1649             inc     R6
0744 0F               1650             inc     R7
0745 1F               1651             dec     R7
0746 010E             1652             ajmp    label11
0748 110E             1653             acall   label11
074A 02111F           1654             ljmp    label61
074D 1111             1655             acall   label13
074F 0E               1656             inc     R6
0750 0116             1657             ajmp    label62
0752 110E             1658             acall   label11
0754 04               1659             inc     A
0755 0E               1660             inc     R6
0756 04               1661             inc     A
0757 0A               1662             inc     R2
0758 1104             1663             acall   label16
075A 1F               1664             dec     R7
075B 0E               1665             inc     R6
075C 00               1666             nop
075D 0E               1667             inc     R6
075E 04               1668             inc     A
075F 00               1669             nop
0760 00               1670             nop
0761 1E               1671             dec     R6
0762 0F               1672             inc     R7
0763 0E               1673             inc     R6
0764 1E               1674             dec     R6
0765 0E               1675             inc     R6
0766 020E11           1676             ljmp    label63
0769 0E               1677             inc     R6
076A 06               1678             inc     @R0
076B 09               1679             inc     R1
076C 0E               1680             inc     R6
076D 1511             1681             dec     11h
076F 0E               1682             inc     R6
0770 0110             1683             ajmp    label25
0772 010F             1684             ajmp    label40
0774 0C               1685             inc     R4
0775 16               1686             dec     @R0
0776 04               1687             inc     A
0777 0A               1688             inc     R2
0778 110E             1689             acall   label11
077A 1F               1690             dec     R7
077B 100401           1691             jbc     4h, label64
077E 1F               1692             dec     R7
                      1693     label64:
077F 00               1694             nop
0780 00               1695             nop
0781 00               1696             nop
0782 00               1697             nop
0783 00               1698             nop
0784 00               1699             nop
0785 00               1700             nop
0786 00               1701             nop
0787 00               1702             nop
0788 00               1703             nop
0789 00               1704             nop
078A 00               1705             nop
078B 00               1706             nop
078C 00               1707             nop
078D 00               1708             nop
078E 00               1709             nop
078F 00               1710             nop
0790 00               1711             nop
0791 00               1712             nop
0792 00               1713             nop
0793 00               1714             nop
0794 00               1715             nop
0795 00               1716             nop
0796 00               1717             nop
0797 00               1718             nop
0798 00               1719             nop
0799 00               1720             nop
079A 00               1721             nop
079B 00               1722             nop
079C 00               1723             nop
079D 00               1724             nop
079E 00               1725             nop
079F 00               1726             nop
07A0 00               1727             nop
07A1 00               1728             nop
07A2 00               1729             nop
07A3 00               1730             nop
07A4 00               1731             nop
07A5 00               1732             nop
07A6 00               1733             nop
07A7 00               1734             nop
07A8 00               1735             nop
07A9 00               1736             nop
07AA 00               1737             nop
07AB 00               1738             nop
07AC 00               1739             nop
07AD 00               1740             nop
07AE 00               1741             nop
07AF 00               1742             nop
07B0 00               1743             nop
07B1 00               1744             nop
07B2 00               1745             nop
07B3 00               1746             nop
07B4 00               1747             nop
07B5 00               1748             nop
07B6 00               1749             nop
07B7 00               1750             nop
07B8 00               1751             nop
07B9 00               1752             nop
07BA 00               1753             nop
07BB 00               1754             nop
07BC 00               1755             nop
07BD 00               1756             nop
07BE 00               1757             nop
07BF 00               1758             nop
07C0 00               1759             nop
07C1 00               1760             nop
07C2 00               1761             nop
07C3 00               1762             nop
07C4 00               1763             nop
07C5 00               1764             nop
07C6 00               1765             nop
07C7 00               1766             nop
07C8 00               1767             nop
07C9 00               1768             nop
07CA 00               1769             nop
07CB 00               1770             nop
07CC 00               1771             nop
07CD 00               1772             nop
07CE 00               1773             nop
07CF 00               1774             nop
07D0 00               1775             nop
07D1 00               1776             nop
07D2 00               1777             nop
07D3 00               1778             nop
07D4 00               1779             nop
07D5 00               1780             nop
07D6 00               1781             nop
07D7 00               1782             nop
07D8 00               1783             nop
07D9 00               1784             nop
07DA 00               1785             nop
07DB 00               1786             nop
07DC 00               1787             nop
07DD 00               1788             nop
07DE 00               1789             nop
07DF 00               1790             nop
07E0 00               1791             nop
07E1 00               1792             nop
07E2 00               1793             nop
07E3 00               1794             nop
07E4 00               1795             nop
07E5 00               1796             nop
07E6 00               1797             nop
07E7 00               1798             nop
07E8 00               1799             nop
07E9 00               1800             nop
07EA 00               1801             nop
07EB 00               1802             nop
07EC 00               1803             nop
07ED 00               1804             nop
07EE 00               1805             nop
07EF 00               1806             nop
07F0 00               1807             nop
07F1 00               1808             nop
07F2 00               1809             nop
07F3 00               1810             nop
07F4 00               1811             nop
07F5 00               1812             nop
07F6 00               1813             nop
07F7 00               1814             nop
07F8 00               1815             nop
07F9 00               1816             nop
07FA 00               1817             nop
07FB 00               1818             nop
07FC 00               1819             nop
07FD 00               1820             nop
07FE 00               1821             nop
07FF 00               1822             nop
0800 751900           1823     label0: mov     19h, #0h
0803 751A10           1824             mov     1Ah, #10h
0806 758922           1825             mov     TMOD, #22h
0809 758C00           1826             mov     TH0, #0h
080C 758DFD           1827             mov     TH1, #0FDh
080F 758850           1828             mov     TCON, #50h
0812 759870           1829             mov     SCON, #70h
0815 75A892           1830             mov     IE, #92h
0818 D2BC             1831             setb    PS
081A 752000           1832             mov     20h, #0h
081D 752108           1833             mov     21h, #8h
0820 752900           1834             mov     29h, #0h
0823 752B80           1835             mov     2Bh, #80h
0826 759000           1836             mov     P1, #0h
0829 75A000           1837             mov     P2, #0h
082C 9122             1838             acall   label65
082E 759000           1839             mov     P1, #0h
0831 752E80           1840             mov     2Eh, #80h
0834 752F10           1841             mov     2Fh, #10h
                      1842     label68:
0837 75A000           1843             mov     P2, #0h
083A 7800             1844             mov     R0, #0h
083C E2               1845             movx    A, @R0
083D F522             1846             mov     22h, A
083F 08               1847             inc     R0
0840 E2               1848             movx    A, @R0
0841 F523             1849             mov     23h, A
                      1850     label70:
0843 300104           1851             jnb     1h, label66
0846 71B5             1852             acall   label67
0848 80ED             1853             sjmp    label68
                      1854     label66:
084A E4               1855             clr     A
084B 120C19           1856             lcall   label69
084E 852282           1857             mov     DPL, 22h
0851 852383           1858             mov     DPH, 23h
0854 E0               1859             movx    A, @DPTR
0855 04               1860             inc     A
0856 60DF             1861             jz      label68
0858 1191             1862             acall   label7
085A 858222           1863             mov     22h, DPL
085D 858323           1864             mov     23h, DPH
0860 14               1865             dec     A
0861 23               1866             rl      A
0862 75A000           1867             mov     P2, #0h
0865 F8               1868             mov     R0, A
0866 E2               1869             movx    A, @R0
0867 F524             1870             mov     24h, A
0869 08               1871             inc     R0
086A E2               1872             movx    A, @R0
086B F525             1873             mov     25h, A
                      1874     label75:
086D 2001D3           1875             jb      1h, label70
0870 852482           1876             mov     DPL, 24h
0873 852583           1877             mov     DPH, 25h
0876 E0               1878             movx    A, @DPTR
0877 30E71F           1879             jnb     0E7h, label71
087A 04               1880             inc     A
087B 60C6             1881             jz      label70
087D 1191             1882             acall   label7
087F 858224           1883             mov     24h, DPL
0882 858325           1884             mov     25h, DPH
0885 B4AF02           1885             cjne    A, #0AFh, label72
0888 8003             1886             sjmp    label73
                      1887     label72:
088A 752900           1888             mov     29h, #0h
                      1889     label73:
088D 516E             1890             acall   label74
088F 80DC             1891             sjmp    label75
0891 A3               1892     label7: inc     DPTR
0892 5383DF           1893             anl     DPH, #0DFh
0895 438310           1894             orl     DPH, #10h
0898 22               1895             ret
                      1896     label71:
0899 E521             1897             mov     A, 21h
089B 90089F           1898             mov     DPTR, #89Fh
089E 73               1899             jmp     @A+DPTR
089F 01B1             1900             ajmp    label76
08A1 01E5             1901             ajmp    label77
08A3 211A             1902             ajmp    label78
08A5 2148             1903             ajmp    label79
08A7 2178             1904             ajmp    label80
08A9 21BB             1905             ajmp    label81
08AB 4145             1906             ajmp    label82
08AD 414E             1907             ajmp    label83
08AF 4159             1908             ajmp    label84
                      1909     label76:
08B1 71F9             1910             acall   label85
08B3 51BD             1911             acall   label86
08B5 858224           1912             mov     24h, DPL
08B8 858325           1913             mov     25h, DPH
                      1914     label94:
08BB 120A39           1915             lcall   label87
08BE 7129             1916             acall   label88
08C0 20E716           1917             jb      0E7h, label89
08C3 75A007           1918             mov     P2, #7h
                      1919     label90:
08C6 E3               1920             movx    A, @R1
08C7 23               1921             rl      A
08C8 23               1922             rl      A
08C9 F3               1923             movx    @R1, A
08CA D5A0F9           1924             djnz    P2, label90
08CD 7B06             1925             mov     R3, #6h
                      1926     label93:
08CF 7A07             1927             mov     R2, #7h
                      1928     label92:
08D1 7159             1929             acall   label91
08D3 DAFC             1930             djnz    R2, label92
08D5 DBF8             1931             djnz    R3, label93
08D7 80E2             1932             sjmp    label94
                      1933     label89:
08D9 7BA0             1934             mov     R3, #0A0h
                      1935     label96:
08DB 7A07             1936             mov     R2, #7h
                      1937     label95:
08DD 7159             1938             acall   label91
08DF DAFC             1939             djnz    R2, label95
08E1 DBF8             1940             djnz    R3, label96
08E3 8088             1941             sjmp    label75
                      1942     label77:
08E5 71F9             1943             acall   label85
08E7 852426           1944             mov     26h, 24h
08EA 852527           1945             mov     27h, 25h
                      1946     label102:
08ED 7129             1947             acall   label88
08EF 20E712           1948             jb      0E7h, label97
08F2 120A2D           1949             lcall   label98
08F5 7B06             1950             mov     R3, #6h
                      1951     label101:
08F7 7A07             1952             mov     R2, #7h
08F9 758301           1953             mov     DPH, #1h
                      1954     label100:
08FC 7181             1955             acall   label99
08FE DAFC             1956             djnz    R2, label100
0900 DBF5             1957             djnz    R3, label101
0902 80E9             1958             sjmp    label102
                      1959     label97:
0904 7BA0             1960             mov     R3, #0A0h
                      1961     label104:
0906 7A07             1962             mov     R2, #7h
0908 758301           1963             mov     DPH, #1h
                      1964     label103:
090B 7181             1965             acall   label99
090D DAFC             1966             djnz    R2, label103
090F DBF5             1967             djnz    R3, label104
                      1968     label113:
0911 852624           1969             mov     24h, 26h
0914 852725           1970             mov     25h, 27h
0917 02086D           1971             ljmp    label75
                      1972     label78:
091A 7B00             1973             mov     R3, #0h
                      1974     label112:
091C 75A007           1975             mov     P2, #7h
091F 758306           1976             mov     DPH, #6h
                      1977     label106:
0922 7813             1978             mov     R0, #13h
0924 8882             1979             mov     DPL, R0
                      1980     label105:
0926 E0               1981             movx    A, @DPTR
0927 F2               1982             movx    @R0, A
0928 1582             1983             dec     DPL
092A D8FA             1984             djnz    R0, label105
092C E0               1985             movx    A, @DPTR
092D F2               1986             movx    @R0, A
092E 15A0             1987             dec     P2
0930 D583EF           1988             djnz    DPH, label106
0933 EB               1989             mov     A, R3
0934 7008             1990             jnz     label107
0936 7813             1991             mov     R0, #13h
                      1992     label108:
0938 F2               1993             movx    @R0, A
0939 D8FD             1994             djnz    R0, label108
093B F2               1995             movx    @R0, A
093C 8002             1996             sjmp    label109
                      1997     label107:
093E 51D2             1998             acall   label110
                      1999     label109:
0940 714B             2000             acall   label111
0942 0B               2001             inc     R3
0943 BB08D6           2002             cjne    R3, #8h, label112
0946 80C9             2003             sjmp    label113
                      2004     label79:
0948 7B08             2005             mov     R3, #8h
                      2006     label119:
094A 75A001           2007             mov     P2, #1h
094D 758302           2008             mov     DPH, #2h
0950 7A06             2009             mov     R2, #6h
                      2010     label115:
0952 7813             2011             mov     R0, #13h
0954 8882             2012             mov     DPL, R0
                      2013     label114:
0956 E0               2014             movx    A, @DPTR
0957 F2               2015             movx    @R0, A
0958 1582             2016             dec     DPL
095A D8FA             2017             djnz    R0, label114
095C E0               2018             movx    A, @DPTR
095D F2               2019             movx    @R0, A
095E 05A0             2020             inc     P2
0960 0583             2021             inc     DPH
0962 DAEE             2022             djnz    R2, label115
0964 BB0809           2023             cjne    R3, #8h, label116
0967 7813             2024             mov     R0, #13h
0969 E4               2025             clr     A
                      2026     label117:
096A F2               2027             movx    @R0, A
096B D8FD             2028             djnz    R0, label117
096D F2               2029             movx    @R0, A
096E 8002             2030             sjmp    label118
                      2031     label116:
0970 51D2             2032             acall   label110
                      2033     label118:
0972 714B             2034             acall   label111
0974 DBD4             2035             djnz    R3, label119
0976 8099             2036             sjmp    label113
                      2037     label80:
0978 852426           2038             mov     26h, 24h
097B 852527           2039             mov     27h, 25h
097E 7B14             2040             mov     R3, #14h
0980 75F001           2041             mov     B, #1h
0983 752D01           2042             mov     2Dh, #1h
                      2043     label124:
0986 31ED             2044             acall   label120
0988 05F0             2045             inc     B
098A 20E723           2046             jb      0E7h, label121
098D E5F0             2047             mov     A, B
098F 6407             2048             xrl     A, #7h
0991 7006             2049             jnz     label122
0993 75F001           2050             mov     B, #1h
0996 120A2D           2051             lcall   label98
                      2052     label122:
0999 1B               2053             dec     R3
099A 5113             2054             acall   label123
099C 0B               2055             inc     R3
099D 714B             2056             acall   label111
099F E52D             2057             mov     A, 2Dh
09A1 052D             2058             inc     2Dh
09A3 30E3E0           2059             jnb     0E3h, label124
09A6 752D01           2060             mov     2Dh, #1h
09A9 DBDB             2061             djnz    R3, label124
09AB 51BD             2062             acall   label86
09AD 020911           2063             ljmp    label113
                      2064     label121:
09B0 E5F0             2065             mov     A, B
09B2 6407             2066             xrl     A, #7h
09B4 70E3             2067             jnz     label122
09B6 75F001           2068             mov     B, #1h
09B9 80DE             2069             sjmp    label122
                      2070     label81:
09BB 51BD             2071             acall   label86
09BD 858224           2072             mov     24h, DPL
09C0 858325           2073             mov     25h, DPH
09C3 7B00             2074             mov     R3, #0h
09C5 75F006           2075             mov     B, #6h
09C8 752D08           2076             mov     2Dh, #8h
09CB 120A39           2077             lcall   label87
                      2078     label126:
09CE 31ED             2079             acall   label120
09D0 D5F009           2080             djnz    B, label125
09D3 75F006           2081             mov     B, #6h
09D6 20E703           2082             jb      0E7h, label125
09D9 120A39           2083             lcall   label87
                      2084     label125:
09DC 5113             2085             acall   label123
09DE 714B             2086             acall   label111
09E0 D52DEB           2087             djnz    2Dh, label126
09E3 752D08           2088             mov     2Dh, #8h
09E6 0B               2089             inc     R3
09E7 BB14E4           2090             cjne    R3, #14h, label126
09EA 02086D           2091             ljmp    label75
                      2092     label120:
09ED 852682           2093             mov     DPL, 26h
09F0 852783           2094             mov     DPH, 27h
09F3 E0               2095             movx    A, @DPTR
09F4 7F00             2096             mov     R7, #0h
09F6 20E719           2097             jb      0E7h, label127
09F9 758307           2098             mov     DPH, #7h
09FC F582             2099             mov     DPL, A
                      2100     label130:
09FE E4               2101             clr     A
09FF 93               2102             movc    A, @A+DPTR
0A00 304A01           2103             jnb     4Ah, label128
0A03 F4               2104             cpl     A
                      2105     label128:
0A04 543F             2106             anl     A, #3Fh
0A06 ACF0             2107             mov     R4, B
                      2108     label129:
0A08 13               2109             rrc     A
0A09 DCFD             2110             djnz    R4, label129
0A0B EF               2111             mov     A, R7
0A0C 13               2112             rrc     A
0A0D FF               2113             mov     R7, A
0A0E D583ED           2114             djnz    DPH, label130
0A11 E4               2115             clr     A
                      2116     label127:
0A12 22               2117             ret
                      2118     label123:
0A13 8B82             2119             mov     DPL, R3
0A15 758307           2120             mov     DPH, #7h
                      2121     label133:
0A18 EF               2122             mov     A, R7
0A19 33               2123             rlc     A
0A1A FF               2124             mov     R7, A
0A1B E0               2125             movx    A, @DPTR
0A1C AC2D             2126             mov     R4, 2Dh
                      2127     label131:
0A1E 03               2128             rr      A
0A1F DCFD             2129             djnz    R4, label131
0A21 92E7             2130             mov     0E7h, C
0A23 AC2D             2131             mov     R4, 2Dh
                      2132     label132:
0A25 23               2133             rl      A
0A26 DCFD             2134             djnz    R4, label132
0A28 F0               2135             movx    @DPTR, A
0A29 D583EC           2136             djnz    DPH, label133
0A2C 22               2137             ret
                      2138     label98:
0A2D 0526             2139             inc     26h
0A2F E526             2140             mov     A, 26h
0A31 7005             2141             jnz     label134
0A33 0527             2142             inc     27h
0A35 432710           2143             orl     27h, #10h
                      2144     label134:
0A38 22               2145             ret
                      2146     label87:
0A39 E526             2147             mov     A, 26h
0A3B 7005             2148             jnz     label135
0A3D 1527             2149             dec     27h
0A3F 432710           2150             orl     27h, #10h
                      2151     label135:
0A42 1526             2152             dec     26h
0A44 22               2153             ret
                      2154     label82:
0A45 7B07             2155             mov     R3, #7h
                      2156     label137:
0A47 71AA             2157             acall   label136
0A49 DBFC             2158             djnz    R3, label137
0A4B 020911           2159             ljmp    label113
                      2160     label83:
0A4E 7B01             2161             mov     R3, #1h
                      2162     label138:
0A50 71AA             2163             acall   label136
0A52 0B               2164             inc     R3
0A53 BB08FA           2165             cjne    R3, #8h, label138
0A56 020911           2166             ljmp    label113
                      2167     label84:
0A59 7A07             2168             mov     R2, #7h
0A5B 7B01             2169             mov     R3, #1h
                      2170     label141:
0A5D 51D0             2171             acall   label139
0A5F 0B               2172             inc     R3
0A60 7166             2173             acall   label140
0A62 DAF9             2174             djnz    R2, label141
0A64 758C80           2175             mov     TH0, #80h
0A67 7C30             2176             mov     R4, #30h
0A69 7150             2177             acall   label142
0A6B 020911           2178             ljmp    label113
                      2179     label74:
0A6E 900A75           2180             mov     DPTR, #0A75h
0A71 245F             2181             add     A, #5Fh
0A73 23               2182             rl      A
0A74 73               2183             jmp     @A+DPTR
0A75 8026             2184             sjmp    label143
0A77 8024             2185             sjmp    label143
0A79 8022             2186             sjmp    label143
0A7B 8020             2187             sjmp    label143
0A7D 801E             2188             sjmp    label143
0A7F 801C             2189             sjmp    label143
0A81 801A             2190             sjmp    label143
0A83 8018             2191             sjmp    label143
0A85 8016             2192             sjmp    label143
0A87 8017             2193             sjmp    label144
0A89 801B             2194             sjmp    label145
0A8B 8019             2195             sjmp    label145
0A8D 8017             2196             sjmp    label145
0A8F 8016             2197             sjmp    label146
0A91 8017             2198             sjmp    label147
0A93 801D             2199             sjmp    label148
0A95 801E             2200             sjmp    label149
0A97 801C             2201             sjmp    label149
0A99 801A             2202             sjmp    label149
0A9B 8018             2203             sjmp    label149
                      2204     label143:
0A9D F521             2205             mov     21h, A
0A9F 22               2206             ret
                      2207     label144:
0AA0 D248             2208             setb    48h
0AA2 752C38           2209             mov     2Ch, #38h
0AA5 22               2210             ret
                      2211     label145:
0AA6 22               2212             ret
                      2213     label146:
0AA7 D24A             2214             setb    4Ah
0AA9 22               2215             ret
                      2216     label147:
0AAA 758C80           2217             mov     TH0, #80h
0AAD 7C38             2218             mov     R4, #38h
0AAF 7150             2219             acall   label142
0AB1 22               2220             ret
                      2221     label148:
0AB2 913D             2222             acall   label150
0AB4 22               2223             ret
                      2224     label149:
0AB5 03               2225             rr      A
0AB6 03               2226             rr      A
0AB7 03               2227             rr      A
0AB8 54C0             2228             anl     A, #0C0h
0ABA F52B             2229             mov     2Bh, A
0ABC 22               2230             ret
                      2231     label86:
0ABD 852482           2232             mov     DPL, 24h
0AC0 852583           2233             mov     DPH, 25h
                      2234     label151:
0AC3 1191             2235             acall   label7
0AC5 E0               2236             movx    A, @DPTR
0AC6 30E7FA           2237             jnb     0E7h, label151
0AC9 858226           2238             mov     26h, DPL
0ACC 858327           2239             mov     27h, DPH
0ACF 22               2240             ret
                      2241     label139:
0AD0 8AA0             2242             mov     P2, R2
                      2243     label110:
0AD2 852426           2244             mov     26h, 24h
0AD5 852527           2245             mov     27h, 25h
0AD8 782A             2246             mov     R0, #2Ah
0ADA 7914             2247             mov     R1, #14h
                      2248     label154:
0ADC 51FD             2249             acall   label152
0ADE C6               2250             xch     A, @R0
0ADF 51F6             2251             acall   label153
0AE1 13               2252             rrc     A
0AE2 9256             2253             mov     56h, C
0AE4 13               2254             rrc     A
0AE5 9257             2255             mov     57h, C
0AE7 540F             2256             anl     A, #0Fh
0AE9 C6               2257             xch     A, @R0
0AEA 51F6             2258             acall   label153
0AEC C4               2259             swap    A
0AED D6               2260             xchd    A, @R0
0AEE 51F6             2261             acall   label153
0AF0 23               2262             rl      A
0AF1 23               2263             rl      A
0AF2 46               2264             orl     A, @R0
0AF3 F6               2265             mov     @R0, A
0AF4 80E6             2266             sjmp    label154
                      2267     label153:
0AF6 F3               2268             movx    @R1, A
0AF7 D904             2269             djnz    R1, label152
0AF9 E6               2270             mov     A, @R0
0AFA F3               2271             movx    @R1, A
0AFB 8010             2272             sjmp    label155
                      2273     label152:
0AFD 852783           2274             mov     DPH, 27h
0B00 852682           2275             mov     DPL, 26h
0B03 E0               2276             movx    A, @DPTR
0B04 30E70B           2277             jnb     0E7h, label156
0B07 E6               2278             mov     A, @R0
                      2279     label157:
0B08 F3               2280             movx    @R1, A
0B09 E4               2281             clr     A
0B0A D9FC             2282             djnz    R1, label157
0B0C F3               2283             movx    @R1, A
                      2284     label155:
0B0D 1581             2285             dec     SP
0B0F 1581             2286             dec     SP
0B11 22               2287             ret
                      2288     label156:
0B12 F582             2289             mov     DPL, A
0B14 8B83             2290             mov     DPH, R3
0B16 0526             2291             inc     26h
0B18 E526             2292             mov     A, 26h
0B1A 7004             2293             jnz     label158
0B1C 0527             2294             inc     27h
0B1E D23C             2295             setb    3Ch
                      2296     label158:
0B20 E4               2297             clr     A
0B21 93               2298             movc    A, @A+DPTR
0B22 304A01           2299             jnb     4Ah, label159
0B25 F4               2300             cpl     A
                      2301     label159:
0B26 543F             2302             anl     A, #3Fh
0B28 22               2303             ret
                      2304     label88:
0B29 A926             2305             mov     R1, 26h
0B2B 8527A0           2306             mov     P2, 27h
0B2E E3               2307             movx    A, @R1
0B2F 20E718           2308             jb      0E7h, label160
0B32 7914             2309             mov     R1, #14h
0B34 75A001           2310             mov     P2, #1h
0B37 758307           2311             mov     DPH, #7h
0B3A F582             2312             mov     DPL, A
                      2313     label162:
0B3C E4               2314             clr     A
0B3D 93               2315             movc    A, @A+DPTR
0B3E 304A01           2316             jnb     4Ah, label161
0B41 F4               2317             cpl     A
                      2318     label161:
0B42 543F             2319             anl     A, #3Fh
0B44 F3               2320             movx    @R1, A
0B45 05A0             2321             inc     P2
0B47 D583F2           2322             djnz    DPH, label162
                      2323     label160:
0B4A 22               2324             ret
                      2325     label111:
0B4B 7C02             2326             mov     R4, #2h
0B4D 852B8C           2327             mov     TH0, 2Bh
                      2328     label142:
0B50 7A07             2329             mov     R2, #7h
                      2330     label163:
0B52 7166             2331             acall   label140
0B54 DAFC             2332             djnz    R2, label163
0B56 DCF8             2333             djnz    R4, label142
0B58 22               2334             ret
                      2335     label91:
0B59 8AA0             2336             mov     P2, R2
0B5B 7914             2337             mov     R1, #14h
0B5D C3               2338             clr     C
                      2339     label164:
0B5E E3               2340             movx    A, @R1
0B5F 33               2341             rlc     A
0B60 F3               2342             movx    @R1, A
0B61 D9FB             2343             djnz    R1, label164
0B63 E3               2344             movx    A, @R1
0B64 33               2345             rlc     A
0B65 F3               2346             movx    @R1, A
                      2347     label140:
0B66 8A83             2348             mov     DPH, R2
0B68 7813             2349             mov     R0, #13h
0B6A 758200           2350             mov     DPL, #0h
0B6D 43A080           2351             orl     P2, #80h
0B70 7400             2352             mov     A, #0h
0B72 9109             2353             acall   label165
                      2354     label166:
0B74 E0               2355             movx    A, @DPTR
0B75 F2               2356             movx    @R0, A
0B76 0582             2357             inc     DPL
0B78 D8FA             2358             djnz    R0, label166
0B7A E0               2359             movx    A, @DPTR
0B7B F2               2360             movx    @R0, A
0B7C E583             2361             mov     A, DPH
0B7E 9109             2362             acall   label165
0B80 22               2363             ret
                      2364     label99:
0B81 8583A0           2365             mov     P2, DPH
0B84 7914             2366             mov     R1, #14h
0B86 C3               2367             clr     C
                      2368     label167:
0B87 E3               2369             movx    A, @R1
0B88 13               2370             rrc     A
0B89 F3               2371             movx    @R1, A
0B8A D9FB             2372             djnz    R1, label167
0B8C E3               2373             movx    A, @R1
0B8D 13               2374             rrc     A
0B8E F3               2375             movx    @R1, A
0B8F 7813             2376             mov     R0, #13h
0B91 758213           2377             mov     DPL, #13h
0B94 43A080           2378             orl     P2, #80h
0B97 7400             2379             mov     A, #0h
0B99 9109             2380             acall   label165
                      2381     label168:
0B9B E0               2382             movx    A, @DPTR
0B9C F2               2383             movx    @R0, A
0B9D 1582             2384             dec     DPL
0B9F D8FA             2385             djnz    R0, label168
0BA1 E0               2386             movx    A, @DPTR
0BA2 F2               2387             movx    @R0, A
0BA3 E583             2388             mov     A, DPH
0BA5 9109             2389             acall   label165
0BA7 0583             2390             inc     DPH
0BA9 22               2391             ret
                      2392     label136:
0BAA EB               2393             mov     A, R3
0BAB 24F7             2394             add     A, #0F7h
0BAD F4               2395             cpl     A
0BAE F5A0             2396             mov     P2, A
0BB0 51D2             2397             acall   label110
0BB2 714B             2398             acall   label111
0BB4 22               2399             ret
                      2400     label67:
0BB5 852E82           2401             mov     DPL, 2Eh
0BB8 852F83           2402             mov     DPH, 2Fh
0BBB 7800             2403             mov     R0, #0h
0BBD E51D             2404             mov     A, 1Dh
                      2405     label171:
0BBF 75A000           2406             mov     P2, #0h
0BC2 E2               2407             movx    A, @R0
0BC3 F9               2408             mov     R1, A
0BC4 E582             2409             mov     A, DPL
0BC6 F2               2410             movx    @R0, A
0BC7 08               2411             inc     R0
0BC8 E2               2412             movx    A, @R0
0BC9 C583             2413             xch     A, DPH
0BCB F2               2414             movx    @R0, A
0BCC C583             2415             xch     A, DPH
0BCE F5A0             2416             mov     P2, A
                      2417     label170:
0BD0 E3               2418             movx    A, @R1
0BD1 F0               2419             movx    @DPTR, A
0BD2 1191             2420             acall   label7
0BD4 09               2421             inc     R1
0BD5 B90004           2422             cjne    R1, #0h, label169
0BD8 05A0             2423             inc     P2
0BDA D2A4             2424             setb    0A4h
                      2425     label169:
0BDC 04               2426             inc     A
0BDD 70F1             2427             jnz     label170
0BDF 08               2428             inc     R0
0BE0 B800DC           2429             cjne    R0, #0h, label171
0BE3 85822E           2430             mov     2Eh, DPL
0BE6 85832F           2431             mov     2Fh, DPH
0BE9 75A007           2432             mov     P2, #7h
0BEC 79FE             2433             mov     R1, #0FEh
0BEE E582             2434             mov     A, DPL
0BF0 F3               2435             movx    @R1, A
0BF1 09               2436             inc     R1
0BF2 E583             2437             mov     A, DPH
0BF4 F3               2438             movx    @R1, A
0BF5 752004           2439             mov     20h, #4h
0BF8 22               2440             ret
                      2441     label85:
0BF9 852B8C           2442             mov     TH0, 2Bh
0BFC E4               2443             clr     A
0BFD 7A07             2444             mov     R2, #7h
                      2445     label173:
0BFF 8AA0             2446             mov     P2, R2
0C01 7900             2447             mov     R1, #0h
                      2448     label172:
0C03 F3               2449             movx    @R1, A
0C04 D9FD             2450             djnz    R1, label172
0C06 DAF7             2451             djnz    R2, label173
0C08 22               2452             ret
                      2453     label165:
0C09 30480D           2454             jnb     48h, label69
0C0C D52C05           2455             djnz    2Ch, label174
0C0F 752C46           2456             mov     2Ch, #46h
0C12 B249             2457             cpl     49h
                      2458     label174:
0C14 304902           2459             jnb     49h, label69
0C17 7400             2460             mov     A, #0h
                      2461     label69:
0C19 3043FD           2462             jnb     43h, $
0C1C F590             2463             mov     P1, A
0C1E 752800           2464             mov     28h, #0h
0C21 22               2465             ret
                      2466     label65:
0C22 75A000           2467             mov     P2, #0h
0C25 E4               2468             clr     A
0C26 F8               2469             mov     R0, A
0C27 7910             2470             mov     R1, #10h
                      2471     label175:
0C29 F2               2472             movx    @R0, A
0C2A 14               2473             dec     A
0C2B 547F             2474             anl     A, #7Fh
0C2D 18               2475             dec     R0
0C2E C9               2476             xch     A, R1
0C2F F2               2477             movx    @R0, A
0C30 C9               2478             xch     A, R1
0C31 D8F6             2479             djnz    R0, label175
0C33 900FFF           2480             mov     DPTR, #0FFFh
0C36 74FF             2481             mov     A, #0FFh
                      2482     label176:
0C38 F0               2483             movx    @DPTR, A
0C39 A3               2484             inc     DPTR
0C3A B582FB           2485             cjne    A, DPL, label176
                      2486     label150:
0C3D 900100           2487             mov     DPTR, #100h
                      2488     label177:
0C40 E4               2489             clr     A
0C41 F0               2490             movx    @DPTR, A
0C42 A3               2491             inc     DPTR
0C43 E583             2492             mov     A, DPH
0C45 30E3F8           2493             jnb     0E3h, label177
0C48 22               2494             ret
0C49 FF               2495             mov     R7, A
0C4A FF               2496             mov     R7, A
0C4B FF               2497             mov     R7, A
0C4C FF               2498             mov     R7, A
0C4D FF               2499             mov     R7, A
0C4E FF               2500             mov     R7, A
0C4F FF               2501             mov     R7, A
0C50 FF               2502             mov     R7, A
0C51 FF               2503             mov     R7, A
0C52 FF               2504             mov     R7, A
0C53 FF               2505             mov     R7, A
0C54 FF               2506             mov     R7, A
0C55 FF               2507             mov     R7, A
0C56 FF               2508             mov     R7, A
0C57 FF               2509             mov     R7, A
0C58 FF               2510             mov     R7, A
0C59 FF               2511             mov     R7, A
0C5A FF               2512             mov     R7, A
0C5B FF               2513             mov     R7, A
0C5C FF               2514             mov     R7, A
0C5D FF               2515             mov     R7, A
0C5E FF               2516             mov     R7, A
0C5F FF               2517             mov     R7, A
0C60 FF               2518             mov     R7, A
0C61 FF               2519             mov     R7, A
0C62 FF               2520             mov     R7, A
0C63 FF               2521             mov     R7, A
0C64 FF               2522             mov     R7, A
0C65 FF               2523             mov     R7, A
0C66 FF               2524             mov     R7, A
0C67 FF               2525             mov     R7, A
0C68 FF               2526             mov     R7, A
0C69 FF               2527             mov     R7, A
0C6A FF               2528             mov     R7, A
0C6B FF               2529             mov     R7, A
0C6C FF               2530             mov     R7, A
0C6D FF               2531             mov     R7, A
0C6E FF               2532             mov     R7, A
0C6F FF               2533             mov     R7, A
0C70 FF               2534             mov     R7, A
0C71 FF               2535             mov     R7, A
0C72 FF               2536             mov     R7, A
0C73 FF               2537             mov     R7, A
0C74 FF               2538             mov     R7, A
0C75 FF               2539             mov     R7, A
0C76 FF               2540             mov     R7, A
0C77 FF               2541             mov     R7, A
0C78 FF               2542             mov     R7, A
0C79 FF               2543             mov     R7, A
0C7A FF               2544             mov     R7, A
0C7B FF               2545             mov     R7, A
0C7C FF               2546             mov     R7, A
0C7D FF               2547             mov     R7, A
0C7E FF               2548             mov     R7, A
0C7F FF               2549             mov     R7, A
0C80 FF               2550             mov     R7, A
0C81 FF               2551             mov     R7, A
0C82 FF               2552             mov     R7, A
0C83 FF               2553             mov     R7, A
0C84 FF               2554             mov     R7, A
0C85 FF               2555             mov     R7, A
0C86 FF               2556             mov     R7, A
0C87 FF               2557             mov     R7, A
0C88 FF               2558             mov     R7, A
0C89 FF               2559             mov     R7, A
0C8A FF               2560             mov     R7, A
0C8B FF               2561             mov     R7, A
0C8C FF               2562             mov     R7, A
0C8D FF               2563             mov     R7, A
0C8E FF               2564             mov     R7, A
0C8F FF               2565             mov     R7, A
0C90 FF               2566             mov     R7, A
0C91 FF               2567             mov     R7, A
0C92 FF               2568             mov     R7, A
0C93 FF               2569             mov     R7, A
0C94 FF               2570             mov     R7, A
0C95 FF               2571             mov     R7, A
0C96 FF               2572             mov     R7, A
0C97 FF               2573             mov     R7, A
0C98 FF               2574             mov     R7, A
0C99 FF               2575             mov     R7, A
0C9A FF               2576             mov     R7, A
0C9B FF               2577             mov     R7, A
0C9C FF               2578             mov     R7, A
0C9D FF               2579             mov     R7, A
0C9E FF               2580             mov     R7, A
0C9F FF               2581             mov     R7, A
0CA0 FF               2582             mov     R7, A
0CA1 FF               2583             mov     R7, A
0CA2 FF               2584             mov     R7, A
0CA3 FF               2585             mov     R7, A
0CA4 FF               2586             mov     R7, A
0CA5 FF               2587             mov     R7, A
0CA6 FF               2588             mov     R7, A
0CA7 FF               2589             mov     R7, A
0CA8 FF               2590             mov     R7, A
0CA9 FF               2591             mov     R7, A
0CAA FF               2592             mov     R7, A
0CAB FF               2593             mov     R7, A
0CAC FF               2594             mov     R7, A
0CAD FF               2595             mov     R7, A
0CAE FF               2596             mov     R7, A
0CAF FF               2597             mov     R7, A
0CB0 FF               2598             mov     R7, A
0CB1 FF               2599             mov     R7, A
0CB2 FF               2600             mov     R7, A
0CB3 FF               2601             mov     R7, A
0CB4 FF               2602             mov     R7, A
0CB5 FF               2603             mov     R7, A
0CB6 FF               2604             mov     R7, A
0CB7 FF               2605             mov     R7, A
0CB8 FF               2606             mov     R7, A
0CB9 FF               2607             mov     R7, A
0CBA FF               2608             mov     R7, A
0CBB FF               2609             mov     R7, A
0CBC FF               2610             mov     R7, A
0CBD FF               2611             mov     R7, A
0CBE FF               2612             mov     R7, A
0CBF FF               2613             mov     R7, A
0CC0 FF               2614             mov     R7, A
0CC1 FF               2615             mov     R7, A
0CC2 FF               2616             mov     R7, A
0CC3 FF               2617             mov     R7, A
0CC4 FF               2618             mov     R7, A
0CC5 FF               2619             mov     R7, A
0CC6 FF               2620             mov     R7, A
0CC7 FF               2621             mov     R7, A
0CC8 FF               2622             mov     R7, A
0CC9 FF               2623             mov     R7, A
0CCA FF               2624             mov     R7, A
0CCB FF               2625             mov     R7, A
0CCC FF               2626             mov     R7, A
0CCD FF               2627             mov     R7, A
0CCE FF               2628             mov     R7, A
0CCF FF               2629             mov     R7, A
0CD0 FF               2630             mov     R7, A
0CD1 FF               2631             mov     R7, A
0CD2 FF               2632             mov     R7, A
0CD3 FF               2633             mov     R7, A
0CD4 FF               2634             mov     R7, A
0CD5 FF               2635             mov     R7, A
0CD6 FF               2636             mov     R7, A
0CD7 FF               2637             mov     R7, A
0CD8 FF               2638             mov     R7, A
0CD9 FF               2639             mov     R7, A
0CDA FF               2640             mov     R7, A
0CDB FF               2641             mov     R7, A
0CDC FF               2642             mov     R7, A
0CDD FF               2643             mov     R7, A
0CDE FF               2644             mov     R7, A
0CDF FF               2645             mov     R7, A
0CE0 FF               2646             mov     R7, A
0CE1 FF               2647             mov     R7, A
0CE2 FF               2648             mov     R7, A
0CE3 FF               2649             mov     R7, A
0CE4 FF               2650             mov     R7, A
0CE5 FF               2651             mov     R7, A
0CE6 FF               2652             mov     R7, A
0CE7 FF               2653             mov     R7, A
0CE8 FF               2654             mov     R7, A
0CE9 FF               2655             mov     R7, A
0CEA FF               2656             mov     R7, A
0CEB FF               2657             mov     R7, A
0CEC FF               2658             mov     R7, A
0CED FF               2659             mov     R7, A
0CEE FF               2660             mov     R7, A
0CEF FF               2661             mov     R7, A
0CF0 FF               2662             mov     R7, A
0CF1 FF               2663             mov     R7, A
0CF2 FF               2664             mov     R7, A
0CF3 FF               2665             mov     R7, A
0CF4 FF               2666             mov     R7, A
0CF5 FF               2667             mov     R7, A
0CF6 FF               2668             mov     R7, A
0CF7 FF               2669             mov     R7, A
0CF8 FF               2670             mov     R7, A
0CF9 FF               2671             mov     R7, A
0CFA FF               2672             mov     R7, A
0CFB FF               2673             mov     R7, A
0CFC FF               2674             mov     R7, A
0CFD FF               2675             mov     R7, A
0CFE FF               2676             mov     R7, A
0CFF FF               2677             mov     R7, A
0D00 FF               2678             mov     R7, A
0D01 FF               2679             mov     R7, A
0D02 FF               2680             mov     R7, A
0D03 FF               2681             mov     R7, A
0D04 FF               2682             mov     R7, A
0D05 FF               2683             mov     R7, A
0D06 FF               2684             mov     R7, A
0D07 FF               2685             mov     R7, A
0D08 FF               2686             mov     R7, A
0D09 FF               2687             mov     R7, A
0D0A FF               2688             mov     R7, A
0D0B FF               2689             mov     R7, A
0D0C FF               2690             mov     R7, A
0D0D FF               2691             mov     R7, A
0D0E FF               2692             mov     R7, A
0D0F FF               2693             mov     R7, A
0D10 FF               2694             mov     R7, A
0D11 FF               2695             mov     R7, A
0D12 FF               2696             mov     R7, A
0D13 FF               2697             mov     R7, A
0D14 FF               2698             mov     R7, A
0D15 FF               2699             mov     R7, A
0D16 FF               2700             mov     R7, A
0D17 FF               2701             mov     R7, A
0D18 FF               2702             mov     R7, A
0D19 FF               2703             mov     R7, A
0D1A FF               2704             mov     R7, A
0D1B FF               2705             mov     R7, A
0D1C FF               2706             mov     R7, A
0D1D FF               2707             mov     R7, A
0D1E FF               2708             mov     R7, A
0D1F FF               2709             mov     R7, A
0D20 FF               2710             mov     R7, A
0D21 FF               2711             mov     R7, A
0D22 FF               2712             mov     R7, A
0D23 FF               2713             mov     R7, A
0D24 FF               2714             mov     R7, A
0D25 FF               2715             mov     R7, A
0D26 FF               2716             mov     R7, A
0D27 FF               2717             mov     R7, A
0D28 FF               2718             mov     R7, A
0D29 FF               2719             mov     R7, A
0D2A FF               2720             mov     R7, A
0D2B FF               2721             mov     R7, A
0D2C FF               2722             mov     R7, A
0D2D FF               2723             mov     R7, A
0D2E FF               2724             mov     R7, A
0D2F FF               2725             mov     R7, A
0D30 FF               2726             mov     R7, A
0D31 FF               2727             mov     R7, A
0D32 FF               2728             mov     R7, A
0D33 FF               2729             mov     R7, A
0D34 FF               2730             mov     R7, A
0D35 FF               2731             mov     R7, A
0D36 FF               2732             mov     R7, A
0D37 FF               2733             mov     R7, A
0D38 FF               2734             mov     R7, A
0D39 FF               2735             mov     R7, A
0D3A FF               2736             mov     R7, A
0D3B FF               2737             mov     R7, A
0D3C FF               2738             mov     R7, A
0D3D FF               2739             mov     R7, A
0D3E FF               2740             mov     R7, A
0D3F FF               2741             mov     R7, A
0D40 FF               2742             mov     R7, A
0D41 FF               2743             mov     R7, A
0D42 FF               2744             mov     R7, A
0D43 FF               2745             mov     R7, A
0D44 FF               2746             mov     R7, A
0D45 FF               2747             mov     R7, A
0D46 FF               2748             mov     R7, A
0D47 FF               2749             mov     R7, A
0D48 FF               2750             mov     R7, A
0D49 FF               2751             mov     R7, A
0D4A FF               2752             mov     R7, A
0D4B FF               2753             mov     R7, A
0D4C FF               2754             mov     R7, A
0D4D FF               2755             mov     R7, A
0D4E FF               2756             mov     R7, A
0D4F FF               2757             mov     R7, A
0D50 FF               2758             mov     R7, A
0D51 FF               2759             mov     R7, A
0D52 FF               2760             mov     R7, A
0D53 FF               2761             mov     R7, A
0D54 FF               2762             mov     R7, A
0D55 FF               2763             mov     R7, A
0D56 FF               2764             mov     R7, A
0D57 FF               2765             mov     R7, A
0D58 FF               2766             mov     R7, A
0D59 FF               2767             mov     R7, A
0D5A FF               2768             mov     R7, A
0D5B FF               2769             mov     R7, A
0D5C FF               2770             mov     R7, A
0D5D FF               2771             mov     R7, A
0D5E FF               2772             mov     R7, A
0D5F FF               2773             mov     R7, A
0D60 FF               2774             mov     R7, A
0D61 FF               2775             mov     R7, A
0D62 FF               2776             mov     R7, A
0D63 FF               2777             mov     R7, A
0D64 FF               2778             mov     R7, A
0D65 FF               2779             mov     R7, A
0D66 FF               2780             mov     R7, A
0D67 FF               2781             mov     R7, A
0D68 FF               2782             mov     R7, A
0D69 FF               2783             mov     R7, A
0D6A FF               2784             mov     R7, A
0D6B FF               2785             mov     R7, A
0D6C FF               2786             mov     R7, A
0D6D FF               2787             mov     R7, A
0D6E FF               2788             mov     R7, A
0D6F FF               2789             mov     R7, A
0D70 FF               2790             mov     R7, A
0D71 FF               2791             mov     R7, A
0D72 FF               2792             mov     R7, A
0D73 FF               2793             mov     R7, A
0D74 FF               2794             mov     R7, A
0D75 FF               2795             mov     R7, A
0D76 FF               2796             mov     R7, A
0D77 FF               2797             mov     R7, A
0D78 FF               2798             mov     R7, A
0D79 FF               2799             mov     R7, A
0D7A FF               2800             mov     R7, A
0D7B FF               2801             mov     R7, A
0D7C FF               2802             mov     R7, A
0D7D FF               2803             mov     R7, A
0D7E FF               2804             mov     R7, A
0D7F FF               2805             mov     R7, A
0D80 FF               2806             mov     R7, A
0D81 FF               2807             mov     R7, A
0D82 FF               2808             mov     R7, A
0D83 FF               2809             mov     R7, A
0D84 FF               2810             mov     R7, A
0D85 FF               2811             mov     R7, A
0D86 FF               2812             mov     R7, A
0D87 FF               2813             mov     R7, A
0D88 FF               2814             mov     R7, A
0D89 FF               2815             mov     R7, A
0D8A FF               2816             mov     R7, A
0D8B FF               2817             mov     R7, A
0D8C FF               2818             mov     R7, A
0D8D FF               2819             mov     R7, A
0D8E FF               2820             mov     R7, A
0D8F FF               2821             mov     R7, A
0D90 FF               2822             mov     R7, A
0D91 FF               2823             mov     R7, A
0D92 FF               2824             mov     R7, A
0D93 FF               2825             mov     R7, A
0D94 FF               2826             mov     R7, A
0D95 FF               2827             mov     R7, A
0D96 FF               2828             mov     R7, A
0D97 FF               2829             mov     R7, A
0D98 FF               2830             mov     R7, A
0D99 FF               2831             mov     R7, A
0D9A FF               2832             mov     R7, A
0D9B FF               2833             mov     R7, A
0D9C FF               2834             mov     R7, A
0D9D FF               2835             mov     R7, A
0D9E FF               2836             mov     R7, A
0D9F FF               2837             mov     R7, A
0DA0 FF               2838             mov     R7, A
0DA1 FF               2839             mov     R7, A
0DA2 FF               2840             mov     R7, A
0DA3 FF               2841             mov     R7, A
0DA4 FF               2842             mov     R7, A
0DA5 FF               2843             mov     R7, A
0DA6 FF               2844             mov     R7, A
0DA7 FF               2845             mov     R7, A
0DA8 FF               2846             mov     R7, A
0DA9 FF               2847             mov     R7, A
0DAA FF               2848             mov     R7, A
0DAB FF               2849             mov     R7, A
0DAC FF               2850             mov     R7, A
0DAD FF               2851             mov     R7, A
0DAE FF               2852             mov     R7, A
0DAF FF               2853             mov     R7, A
0DB0 FF               2854             mov     R7, A
0DB1 FF               2855             mov     R7, A
0DB2 FF               2856             mov     R7, A
0DB3 FF               2857             mov     R7, A
0DB4 FF               2858             mov     R7, A
0DB5 FF               2859             mov     R7, A
0DB6 FF               2860             mov     R7, A
0DB7 FF               2861             mov     R7, A
0DB8 FF               2862             mov     R7, A
0DB9 FF               2863             mov     R7, A
0DBA FF               2864             mov     R7, A
0DBB FF               2865             mov     R7, A
0DBC FF               2866             mov     R7, A
0DBD FF               2867             mov     R7, A
0DBE FF               2868             mov     R7, A
0DBF FF               2869             mov     R7, A
0DC0 FF               2870             mov     R7, A
0DC1 FF               2871             mov     R7, A
0DC2 FF               2872             mov     R7, A
0DC3 FF               2873             mov     R7, A
0DC4 FF               2874             mov     R7, A
0DC5 FF               2875             mov     R7, A
0DC6 FF               2876             mov     R7, A
0DC7 FF               2877             mov     R7, A
0DC8 FF               2878             mov     R7, A
0DC9 FF               2879             mov     R7, A
0DCA FF               2880             mov     R7, A
0DCB FF               2881             mov     R7, A
0DCC FF               2882             mov     R7, A
0DCD FF               2883             mov     R7, A
0DCE FF               2884             mov     R7, A
0DCF FF               2885             mov     R7, A
0DD0 FF               2886             mov     R7, A
0DD1 FF               2887             mov     R7, A
0DD2 FF               2888             mov     R7, A
0DD3 FF               2889             mov     R7, A
0DD4 FF               2890             mov     R7, A
0DD5 FF               2891             mov     R7, A
0DD6 FF               2892             mov     R7, A
0DD7 FF               2893             mov     R7, A
0DD8 FF               2894             mov     R7, A
0DD9 FF               2895             mov     R7, A
0DDA FF               2896             mov     R7, A
0DDB FF               2897             mov     R7, A
0DDC FF               2898             mov     R7, A
0DDD FF               2899             mov     R7, A
0DDE FF               2900             mov     R7, A
0DDF FF               2901             mov     R7, A
0DE0 FF               2902             mov     R7, A
0DE1 FF               2903             mov     R7, A
0DE2 FF               2904             mov     R7, A
0DE3 FF               2905             mov     R7, A
0DE4 FF               2906             mov     R7, A
0DE5 FF               2907             mov     R7, A
0DE6 FF               2908             mov     R7, A
0DE7 FF               2909             mov     R7, A
0DE8 FF               2910             mov     R7, A
0DE9 FF               2911             mov     R7, A
0DEA FF               2912             mov     R7, A
0DEB FF               2913             mov     R7, A
0DEC FF               2914             mov     R7, A
0DED FF               2915             mov     R7, A
0DEE FF               2916             mov     R7, A
0DEF FF               2917             mov     R7, A
0DF0 FF               2918             mov     R7, A
0DF1 FF               2919             mov     R7, A
0DF2 FF               2920             mov     R7, A
0DF3 FF               2921             mov     R7, A
0DF4 FF               2922             mov     R7, A
0DF5 FF               2923             mov     R7, A
0DF6 FF               2924             mov     R7, A
0DF7 FF               2925             mov     R7, A
0DF8 FF               2926             mov     R7, A
0DF9 FF               2927             mov     R7, A
0DFA FF               2928             mov     R7, A
0DFB FF               2929             mov     R7, A
0DFC FF               2930             mov     R7, A
0DFD FF               2931             mov     R7, A
0DFE FF               2932             mov     R7, A
0DFF FF               2933             mov     R7, A
0E00 FF               2934             mov     R7, A
0E01 FF               2935             mov     R7, A
0E02 FF               2936             mov     R7, A
0E03 FF               2937             mov     R7, A
0E04 FF               2938             mov     R7, A
0E05 FF               2939             mov     R7, A
0E06 FF               2940             mov     R7, A
0E07 FF               2941             mov     R7, A
0E08 FF               2942             mov     R7, A
0E09 FF               2943             mov     R7, A
0E0A FF               2944             mov     R7, A
0E0B FF               2945             mov     R7, A
0E0C FF               2946             mov     R7, A
0E0D FF               2947             mov     R7, A
                      2948     label10:
0E0E FF               2949             mov     R7, A
0E0F FF               2950             mov     R7, A
0E10 FF               2951             mov     R7, A
                      2952     label63:
0E11 FF               2953             mov     R7, A
0E12 FF               2954             mov     R7, A
0E13 FF               2955             mov     R7, A
0E14 FF               2956             mov     R7, A
0E15 FF               2957             mov     R7, A
0E16 FF               2958             mov     R7, A
0E17 FF               2959             mov     R7, A
0E18 FF               2960             mov     R7, A
0E19 FF               2961             mov     R7, A
0E1A FF               2962             mov     R7, A
0E1B FF               2963             mov     R7, A
0E1C FF               2964             mov     R7, A
0E1D FF               2965             mov     R7, A
0E1E FF               2966             mov     R7, A
0E1F FF               2967             mov     R7, A
0E20 FF               2968             mov     R7, A
0E21 FF               2969             mov     R7, A
0E22 FF               2970             mov     R7, A
0E23 FF               2971             mov     R7, A
0E24 FF               2972             mov     R7, A
0E25 FF               2973             mov     R7, A
0E26 FF               2974             mov     R7, A
0E27 FF               2975             mov     R7, A
0E28 FF               2976             mov     R7, A
0E29 FF               2977             mov     R7, A
0E2A FF               2978             mov     R7, A
0E2B FF               2979             mov     R7, A
0E2C FF               2980             mov     R7, A
0E2D FF               2981             mov     R7, A
0E2E FF               2982             mov     R7, A
0E2F FF               2983             mov     R7, A
0E30 FF               2984             mov     R7, A
0E31 FF               2985             mov     R7, A
0E32 FF               2986             mov     R7, A
0E33 FF               2987             mov     R7, A
0E34 FF               2988             mov     R7, A
0E35 FF               2989             mov     R7, A
0E36 FF               2990             mov     R7, A
0E37 FF               2991             mov     R7, A
0E38 FF               2992             mov     R7, A
0E39 FF               2993             mov     R7, A
0E3A FF               2994             mov     R7, A
0E3B FF               2995             mov     R7, A
0E3C FF               2996             mov     R7, A
0E3D FF               2997             mov     R7, A
0E3E FF               2998             mov     R7, A
0E3F FF               2999             mov     R7, A
0E40 FF               3000             mov     R7, A
0E41 FF               3001             mov     R7, A
0E42 FF               3002             mov     R7, A
0E43 FF               3003             mov     R7, A
0E44 FF               3004             mov     R7, A
0E45 FF               3005             mov     R7, A
0E46 FF               3006             mov     R7, A
0E47 FF               3007             mov     R7, A
0E48 FF               3008             mov     R7, A
0E49 FF               3009             mov     R7, A
0E4A FF               3010             mov     R7, A
0E4B FF               3011             mov     R7, A
0E4C FF               3012             mov     R7, A
0E4D FF               3013             mov     R7, A
0E4E FF               3014             mov     R7, A
0E4F FF               3015             mov     R7, A
0E50 FF               3016             mov     R7, A
0E51 FF               3017             mov     R7, A
0E52 FF               3018             mov     R7, A
0E53 FF               3019             mov     R7, A
0E54 FF               3020             mov     R7, A
0E55 FF               3021             mov     R7, A
0E56 FF               3022             mov     R7, A
0E57 FF               3023             mov     R7, A
0E58 FF               3024             mov     R7, A
0E59 FF               3025             mov     R7, A
0E5A FF               3026             mov     R7, A
0E5B FF               3027             mov     R7, A
0E5C FF               3028             mov     R7, A
0E5D FF               3029             mov     R7, A
0E5E FF               3030             mov     R7, A
0E5F FF               3031             mov     R7, A
0E60 FF               3032             mov     R7, A
0E61 FF               3033             mov     R7, A
0E62 FF               3034             mov     R7, A
0E63 FF               3035             mov     R7, A
0E64 FF               3036             mov     R7, A
0E65 FF               3037             mov     R7, A
0E66 FF               3038             mov     R7, A
0E67 FF               3039             mov     R7, A
0E68 FF               3040             mov     R7, A
0E69 FF               3041             mov     R7, A
0E6A FF               3042             mov     R7, A
0E6B FF               3043             mov     R7, A
0E6C FF               3044             mov     R7, A
0E6D FF               3045             mov     R7, A
0E6E FF               3046             mov     R7, A
0E6F FF               3047             mov     R7, A
0E70 FF               3048             mov     R7, A
0E71 FF               3049             mov     R7, A
0E72 FF               3050             mov     R7, A
0E73 FF               3051             mov     R7, A
0E74 FF               3052             mov     R7, A
0E75 FF               3053             mov     R7, A
0E76 FF               3054             mov     R7, A
0E77 FF               3055             mov     R7, A
0E78 FF               3056             mov     R7, A
0E79 FF               3057             mov     R7, A
0E7A FF               3058             mov     R7, A
0E7B FF               3059             mov     R7, A
0E7C FF               3060             mov     R7, A
0E7D FF               3061             mov     R7, A
0E7E FF               3062             mov     R7, A
0E7F FF               3063             mov     R7, A
0E80 FF               3064             mov     R7, A
0E81 FF               3065             mov     R7, A
0E82 FF               3066             mov     R7, A
0E83 FF               3067             mov     R7, A
0E84 FF               3068             mov     R7, A
0E85 FF               3069             mov     R7, A
0E86 FF               3070             mov     R7, A
0E87 FF               3071             mov     R7, A
0E88 FF               3072             mov     R7, A
0E89 FF               3073             mov     R7, A
0E8A FF               3074             mov     R7, A
0E8B FF               3075             mov     R7, A
0E8C FF               3076             mov     R7, A
0E8D FF               3077             mov     R7, A
0E8E FF               3078             mov     R7, A
0E8F FF               3079             mov     R7, A
0E90 FF               3080             mov     R7, A
0E91 FF               3081             mov     R7, A
0E92 FF               3082             mov     R7, A
0E93 FF               3083             mov     R7, A
0E94 FF               3084             mov     R7, A
0E95 FF               3085             mov     R7, A
0E96 FF               3086             mov     R7, A
0E97 FF               3087             mov     R7, A
0E98 FF               3088             mov     R7, A
0E99 FF               3089             mov     R7, A
0E9A FF               3090             mov     R7, A
0E9B FF               3091             mov     R7, A
0E9C FF               3092             mov     R7, A
0E9D FF               3093             mov     R7, A
0E9E FF               3094             mov     R7, A
0E9F FF               3095             mov     R7, A
0EA0 FF               3096             mov     R7, A
0EA1 FF               3097             mov     R7, A
0EA2 FF               3098             mov     R7, A
0EA3 FF               3099             mov     R7, A
0EA4 FF               3100             mov     R7, A
0EA5 FF               3101             mov     R7, A
0EA6 FF               3102             mov     R7, A
0EA7 FF               3103             mov     R7, A
0EA8 FF               3104             mov     R7, A
0EA9 FF               3105             mov     R7, A
0EAA FF               3106             mov     R7, A
0EAB FF               3107             mov     R7, A
0EAC FF               3108             mov     R7, A
0EAD FF               3109             mov     R7, A
0EAE FF               3110             mov     R7, A
0EAF FF               3111             mov     R7, A
0EB0 FF               3112             mov     R7, A
0EB1 FF               3113             mov     R7, A
0EB2 FF               3114             mov     R7, A
0EB3 FF               3115             mov     R7, A
0EB4 FF               3116             mov     R7, A
0EB5 FF               3117             mov     R7, A
0EB6 FF               3118             mov     R7, A
0EB7 FF               3119             mov     R7, A
0EB8 FF               3120             mov     R7, A
0EB9 FF               3121             mov     R7, A
0EBA FF               3122             mov     R7, A
0EBB FF               3123             mov     R7, A
0EBC FF               3124             mov     R7, A
0EBD FF               3125             mov     R7, A
0EBE FF               3126             mov     R7, A
0EBF FF               3127             mov     R7, A
0EC0 FF               3128             mov     R7, A
0EC1 FF               3129             mov     R7, A
0EC2 FF               3130             mov     R7, A
0EC3 FF               3131             mov     R7, A
0EC4 FF               3132             mov     R7, A
0EC5 FF               3133             mov     R7, A
0EC6 FF               3134             mov     R7, A
0EC7 FF               3135             mov     R7, A
0EC8 FF               3136             mov     R7, A
0EC9 FF               3137             mov     R7, A
0ECA FF               3138             mov     R7, A
0ECB FF               3139             mov     R7, A
0ECC FF               3140             mov     R7, A
0ECD FF               3141             mov     R7, A
0ECE FF               3142             mov     R7, A
0ECF FF               3143             mov     R7, A
0ED0 FF               3144             mov     R7, A
0ED1 FF               3145             mov     R7, A
0ED2 FF               3146             mov     R7, A
0ED3 FF               3147             mov     R7, A
0ED4 FF               3148             mov     R7, A
0ED5 FF               3149             mov     R7, A
0ED6 FF               3150             mov     R7, A
0ED7 FF               3151             mov     R7, A
0ED8 FF               3152             mov     R7, A
0ED9 FF               3153             mov     R7, A
0EDA FF               3154             mov     R7, A
0EDB FF               3155             mov     R7, A
0EDC FF               3156             mov     R7, A
0EDD FF               3157             mov     R7, A
0EDE FF               3158             mov     R7, A
0EDF FF               3159             mov     R7, A
0EE0 FF               3160             mov     R7, A
0EE1 FF               3161             mov     R7, A
0EE2 FF               3162             mov     R7, A
0EE3 FF               3163             mov     R7, A
0EE4 FF               3164             mov     R7, A
0EE5 FF               3165             mov     R7, A
0EE6 FF               3166             mov     R7, A
0EE7 FF               3167             mov     R7, A
0EE8 FF               3168             mov     R7, A
0EE9 FF               3169             mov     R7, A
0EEA FF               3170             mov     R7, A
0EEB FF               3171             mov     R7, A
0EEC FF               3172             mov     R7, A
0EED FF               3173             mov     R7, A
0EEE FF               3174             mov     R7, A
0EEF FF               3175             mov     R7, A
0EF0 FF               3176             mov     R7, A
0EF1 FF               3177             mov     R7, A
0EF2 FF               3178             mov     R7, A
0EF3 FF               3179             mov     R7, A
0EF4 FF               3180             mov     R7, A
0EF5 FF               3181             mov     R7, A
0EF6 FF               3182             mov     R7, A
0EF7 FF               3183             mov     R7, A
0EF8 FF               3184             mov     R7, A
0EF9 FF               3185             mov     R7, A
0EFA FF               3186             mov     R7, A
0EFB FF               3187             mov     R7, A
0EFC FF               3188             mov     R7, A
0EFD FF               3189             mov     R7, A
0EFE FF               3190             mov     R7, A
0EFF FF               3191             mov     R7, A
0F00 FF               3192             mov     R7, A
0F01 FF               3193             mov     R7, A
0F02 FF               3194             mov     R7, A
0F03 FF               3195             mov     R7, A
0F04 FF               3196             mov     R7, A
0F05 FF               3197             mov     R7, A
0F06 FF               3198             mov     R7, A
0F07 FF               3199             mov     R7, A
0F08 FF               3200             mov     R7, A
0F09 FF               3201             mov     R7, A
0F0A FF               3202             mov     R7, A
0F0B FF               3203             mov     R7, A
0F0C FF               3204             mov     R7, A
0F0D FF               3205             mov     R7, A
0F0E FF               3206             mov     R7, A
0F0F FF               3207             mov     R7, A
0F10 FF               3208             mov     R7, A
0F11 FF               3209             mov     R7, A
0F12 FF               3210             mov     R7, A
0F13 FF               3211             mov     R7, A
0F14 FF               3212             mov     R7, A
0F15 FF               3213             mov     R7, A
0F16 FF               3214             mov     R7, A
0F17 FF               3215             mov     R7, A
0F18 FF               3216             mov     R7, A
0F19 FF               3217             mov     R7, A
0F1A FF               3218             mov     R7, A
0F1B FF               3219             mov     R7, A
0F1C FF               3220             mov     R7, A
0F1D FF               3221             mov     R7, A
0F1E FF               3222             mov     R7, A
0F1F FF               3223             mov     R7, A
0F20 FF               3224             mov     R7, A
0F21 FF               3225             mov     R7, A
0F22 FF               3226             mov     R7, A
0F23 FF               3227             mov     R7, A
0F24 FF               3228             mov     R7, A
0F25 FF               3229             mov     R7, A
0F26 FF               3230             mov     R7, A
0F27 FF               3231             mov     R7, A
0F28 FF               3232             mov     R7, A
0F29 FF               3233             mov     R7, A
0F2A FF               3234             mov     R7, A
0F2B FF               3235             mov     R7, A
0F2C FF               3236             mov     R7, A
0F2D FF               3237             mov     R7, A
0F2E FF               3238             mov     R7, A
0F2F FF               3239             mov     R7, A
0F30 FF               3240             mov     R7, A
0F31 FF               3241             mov     R7, A
0F32 FF               3242             mov     R7, A
0F33 FF               3243             mov     R7, A
0F34 FF               3244             mov     R7, A
0F35 FF               3245             mov     R7, A
0F36 FF               3246             mov     R7, A
0F37 FF               3247             mov     R7, A
0F38 FF               3248             mov     R7, A
0F39 FF               3249             mov     R7, A
0F3A FF               3250             mov     R7, A
0F3B FF               3251             mov     R7, A
0F3C FF               3252             mov     R7, A
0F3D FF               3253             mov     R7, A
0F3E FF               3254             mov     R7, A
0F3F FF               3255             mov     R7, A
0F40 FF               3256             mov     R7, A
0F41 FF               3257             mov     R7, A
0F42 FF               3258             mov     R7, A
0F43 FF               3259             mov     R7, A
0F44 FF               3260             mov     R7, A
0F45 FF               3261             mov     R7, A
0F46 FF               3262             mov     R7, A
0F47 FF               3263             mov     R7, A
0F48 FF               3264             mov     R7, A
0F49 FF               3265             mov     R7, A
0F4A FF               3266             mov     R7, A
0F4B FF               3267             mov     R7, A
0F4C FF               3268             mov     R7, A
0F4D FF               3269             mov     R7, A
0F4E FF               3270             mov     R7, A
0F4F FF               3271             mov     R7, A
0F50 FF               3272             mov     R7, A
0F51 FF               3273             mov     R7, A
0F52 FF               3274             mov     R7, A
0F53 FF               3275             mov     R7, A
0F54 FF               3276             mov     R7, A
0F55 FF               3277             mov     R7, A
0F56 FF               3278             mov     R7, A
0F57 FF               3279             mov     R7, A
0F58 FF               3280             mov     R7, A
0F59 FF               3281             mov     R7, A
0F5A FF               3282             mov     R7, A
0F5B FF               3283             mov     R7, A
0F5C FF               3284             mov     R7, A
0F5D FF               3285             mov     R7, A
0F5E FF               3286             mov     R7, A
0F5F FF               3287             mov     R7, A
0F60 FF               3288             mov     R7, A
0F61 FF               3289             mov     R7, A
0F62 FF               3290             mov     R7, A
0F63 FF               3291             mov     R7, A
0F64 FF               3292             mov     R7, A
0F65 FF               3293             mov     R7, A
0F66 FF               3294             mov     R7, A
0F67 FF               3295             mov     R7, A
0F68 FF               3296             mov     R7, A
0F69 FF               3297             mov     R7, A
0F6A FF               3298             mov     R7, A
0F6B FF               3299             mov     R7, A
0F6C FF               3300             mov     R7, A
0F6D FF               3301             mov     R7, A
0F6E FF               3302             mov     R7, A
0F6F FF               3303             mov     R7, A
0F70 FF               3304             mov     R7, A
0F71 FF               3305             mov     R7, A
0F72 FF               3306             mov     R7, A
0F73 FF               3307             mov     R7, A
0F74 FF               3308             mov     R7, A
0F75 FF               3309             mov     R7, A
0F76 FF               3310             mov     R7, A
0F77 FF               3311             mov     R7, A
0F78 FF               3312             mov     R7, A
0F79 FF               3313             mov     R7, A
0F7A FF               3314             mov     R7, A
0F7B FF               3315             mov     R7, A
0F7C FF               3316             mov     R7, A
0F7D FF               3317             mov     R7, A
0F7E FF               3318             mov     R7, A
0F7F FF               3319             mov     R7, A
0F80 FF               3320             mov     R7, A
0F81 FF               3321             mov     R7, A
0F82 FF               3322             mov     R7, A
0F83 FF               3323             mov     R7, A
0F84 FF               3324             mov     R7, A
0F85 FF               3325             mov     R7, A
0F86 FF               3326             mov     R7, A
0F87 FF               3327             mov     R7, A
0F88 FF               3328             mov     R7, A
0F89 FF               3329             mov     R7, A
0F8A FF               3330             mov     R7, A
0F8B FF               3331             mov     R7, A
0F8C FF               3332             mov     R7, A
0F8D FF               3333             mov     R7, A
0F8E FF               3334             mov     R7, A
0F8F FF               3335             mov     R7, A
0F90 FF               3336             mov     R7, A
0F91 FF               3337             mov     R7, A
0F92 FF               3338             mov     R7, A
0F93 FF               3339             mov     R7, A
0F94 FF               3340             mov     R7, A
0F95 FF               3341             mov     R7, A
0F96 FF               3342             mov     R7, A
0F97 FF               3343             mov     R7, A
0F98 FF               3344             mov     R7, A
0F99 FF               3345             mov     R7, A
0F9A FF               3346             mov     R7, A
0F9B FF               3347             mov     R7, A
0F9C FF               3348             mov     R7, A
0F9D FF               3349             mov     R7, A
0F9E FF               3350             mov     R7, A
0F9F FF               3351             mov     R7, A
0FA0 FF               3352             mov     R7, A
0FA1 FF               3353             mov     R7, A
0FA2 FF               3354             mov     R7, A
0FA3 FF               3355             mov     R7, A
0FA4 FF               3356             mov     R7, A
0FA5 FF               3357             mov     R7, A
0FA6 FF               3358             mov     R7, A
0FA7 FF               3359             mov     R7, A
0FA8 FF               3360             mov     R7, A
0FA9 FF               3361             mov     R7, A
0FAA FF               3362             mov     R7, A
0FAB FF               3363             mov     R7, A
0FAC FF               3364             mov     R7, A
0FAD FF               3365             mov     R7, A
0FAE FF               3366             mov     R7, A
0FAF FF               3367             mov     R7, A
0FB0 FF               3368             mov     R7, A
0FB1 FF               3369             mov     R7, A
0FB2 FF               3370             mov     R7, A
0FB3 FF               3371             mov     R7, A
0FB4 FF               3372             mov     R7, A
0FB5 FF               3373             mov     R7, A
0FB6 FF               3374             mov     R7, A
0FB7 FF               3375             mov     R7, A
0FB8 FF               3376             mov     R7, A
0FB9 FF               3377             mov     R7, A
0FBA FF               3378             mov     R7, A
0FBB FF               3379             mov     R7, A
0FBC FF               3380             mov     R7, A
0FBD FF               3381             mov     R7, A
0FBE FF               3382             mov     R7, A
0FBF FF               3383             mov     R7, A
0FC0 FF               3384             mov     R7, A
0FC1 FF               3385             mov     R7, A
0FC2 FF               3386             mov     R7, A
0FC3 FF               3387             mov     R7, A
0FC4 FF               3388             mov     R7, A
0FC5 FF               3389             mov     R7, A
0FC6 FF               3390             mov     R7, A
0FC7 FF               3391             mov     R7, A
0FC8 FF               3392             mov     R7, A
0FC9 FF               3393             mov     R7, A
0FCA FF               3394             mov     R7, A
0FCB FF               3395             mov     R7, A
0FCC FF               3396             mov     R7, A
0FCD FF               3397             mov     R7, A
0FCE FF               3398             mov     R7, A
0FCF FF               3399             mov     R7, A
0FD0 FF               3400             mov     R7, A
0FD1 FF               3401             mov     R7, A
0FD2 FF               3402             mov     R7, A
0FD3 FF               3403             mov     R7, A
0FD4 FF               3404             mov     R7, A
0FD5 FF               3405             mov     R7, A
0FD6 FF               3406             mov     R7, A
0FD7 FF               3407             mov     R7, A
0FD8 FF               3408             mov     R7, A
0FD9 FF               3409             mov     R7, A
0FDA FF               3410             mov     R7, A
0FDB FF               3411             mov     R7, A
0FDC FF               3412             mov     R7, A
0FDD FF               3413             mov     R7, A
0FDE FF               3414             mov     R7, A
0FDF FF               3415             mov     R7, A
0FE0 FF               3416             mov     R7, A
0FE1 FF               3417             mov     R7, A
0FE2 FF               3418             mov     R7, A
0FE3 FF               3419             mov     R7, A
0FE4 FF               3420             mov     R7, A
0FE5 FF               3421             mov     R7, A
0FE6 FF               3422             mov     R7, A
0FE7 FF               3423             mov     R7, A
0FE8 FF               3424             mov     R7, A
0FE9 FF               3425             mov     R7, A
0FEA FF               3426             mov     R7, A
0FEB FF               3427             mov     R7, A
0FEC FF               3428             mov     R7, A
0FED FF               3429             mov     R7, A
0FEE FF               3430             mov     R7, A
0FEF FF               3431             mov     R7, A
0FF0 FF               3432             mov     R7, A
0FF1 FF               3433             mov     R7, A
0FF2 FF               3434             mov     R7, A
0FF3 FF               3435             mov     R7, A
0FF4 FF               3436             mov     R7, A
0FF5 FF               3437             mov     R7, A
0FF6 FF               3438             mov     R7, A
0FF7 FF               3439             mov     R7, A
0FF8 FF               3440             mov     R7, A
0FF9 FF               3441             mov     R7, A
0FFA FF               3442             mov     R7, A
0FFB FF               3443             mov     R7, A
0FFC FF               3444             mov     R7, A
0FFD FF               3445             mov     R7, A
0FFE FF               3446             mov     R7, A
0FFF FF               3447             mov     R7, A
1000 FF               3448             mov     R7, A
1001 FF               3449             mov     R7, A
1002 FF               3450             mov     R7, A
1003 FF               3451             mov     R7, A
1004 FF               3452             mov     R7, A
1005 FF               3453             mov     R7, A
1006 FF               3454             mov     R7, A
1007 FF               3455             mov     R7, A
1008 FF               3456             mov     R7, A
1009 FF               3457             mov     R7, A
100A FF               3458             mov     R7, A
100B FF               3459             mov     R7, A
100C FF               3460             mov     R7, A
100D FF               3461             mov     R7, A
100E FF               3462             mov     R7, A
100F FF               3463             mov     R7, A
1010 FF               3464             mov     R7, A
1011 FF               3465             mov     R7, A
1012 FF               3466             mov     R7, A
1013 FF               3467             mov     R7, A
1014 FF               3468             mov     R7, A
1015 FF               3469             mov     R7, A
1016 FF               3470             mov     R7, A
1017 FF               3471             mov     R7, A
1018 FF               3472             mov     R7, A
1019 FF               3473             mov     R7, A
101A FF               3474             mov     R7, A
101B FF               3475             mov     R7, A
101C FF               3476             mov     R7, A
101D FF               3477             mov     R7, A
101E FF               3478             mov     R7, A
101F FF               3479             mov     R7, A
1020 FF               3480             mov     R7, A
1021 FF               3481             mov     R7, A
1022 FF               3482             mov     R7, A
1023 FF               3483             mov     R7, A
1024 FF               3484             mov     R7, A
1025 FF               3485             mov     R7, A
1026 FF               3486             mov     R7, A
1027 FF               3487             mov     R7, A
1028 FF               3488             mov     R7, A
1029 FF               3489             mov     R7, A
102A FF               3490             mov     R7, A
102B FF               3491             mov     R7, A
102C FF               3492             mov     R7, A
102D FF               3493             mov     R7, A
102E FF               3494             mov     R7, A
102F FF               3495             mov     R7, A
1030 FF               3496             mov     R7, A
1031 FF               3497             mov     R7, A
1032 FF               3498             mov     R7, A
1033 FF               3499             mov     R7, A
1034 FF               3500             mov     R7, A
1035 FF               3501             mov     R7, A
1036 FF               3502             mov     R7, A
1037 FF               3503             mov     R7, A
1038 FF               3504             mov     R7, A
1039 FF               3505             mov     R7, A
103A FF               3506             mov     R7, A
103B FF               3507             mov     R7, A
103C FF               3508             mov     R7, A
103D FF               3509             mov     R7, A
103E FF               3510             mov     R7, A
103F FF               3511             mov     R7, A
1040 FF               3512             mov     R7, A
1041 FF               3513             mov     R7, A
1042 FF               3514             mov     R7, A
1043 FF               3515             mov     R7, A
1044 FF               3516             mov     R7, A
1045 FF               3517             mov     R7, A
1046 FF               3518             mov     R7, A
1047 FF               3519             mov     R7, A
1048 FF               3520             mov     R7, A
1049 FF               3521             mov     R7, A
104A FF               3522             mov     R7, A
104B FF               3523             mov     R7, A
104C FF               3524             mov     R7, A
104D FF               3525             mov     R7, A
104E FF               3526             mov     R7, A
104F FF               3527             mov     R7, A
1050 FF               3528             mov     R7, A
1051 FF               3529             mov     R7, A
1052 FF               3530             mov     R7, A
1053 FF               3531             mov     R7, A
1054 FF               3532             mov     R7, A
1055 FF               3533             mov     R7, A
1056 FF               3534             mov     R7, A
1057 FF               3535             mov     R7, A
1058 FF               3536             mov     R7, A
1059 FF               3537             mov     R7, A
105A FF               3538             mov     R7, A
105B FF               3539             mov     R7, A
105C FF               3540             mov     R7, A
105D FF               3541             mov     R7, A
105E FF               3542             mov     R7, A
105F FF               3543             mov     R7, A
1060 FF               3544             mov     R7, A
1061 FF               3545             mov     R7, A
1062 FF               3546             mov     R7, A
1063 FF               3547             mov     R7, A
1064 FF               3548             mov     R7, A
1065 FF               3549             mov     R7, A
1066 FF               3550             mov     R7, A
1067 FF               3551             mov     R7, A
1068 FF               3552             mov     R7, A
1069 FF               3553             mov     R7, A
106A FF               3554             mov     R7, A
106B FF               3555             mov     R7, A
106C FF               3556             mov     R7, A
106D FF               3557             mov     R7, A
106E FF               3558             mov     R7, A
106F FF               3559             mov     R7, A
1070 FF               3560             mov     R7, A
1071 FF               3561             mov     R7, A
1072 FF               3562             mov     R7, A
1073 FF               3563             mov     R7, A
1074 FF               3564             mov     R7, A
1075 FF               3565             mov     R7, A
1076 FF               3566             mov     R7, A
1077 FF               3567             mov     R7, A
1078 FF               3568             mov     R7, A
1079 FF               3569             mov     R7, A
107A FF               3570             mov     R7, A
107B FF               3571             mov     R7, A
107C FF               3572             mov     R7, A
107D FF               3573             mov     R7, A
107E FF               3574             mov     R7, A
107F FF               3575             mov     R7, A
1080 FF               3576             mov     R7, A
1081 FF               3577             mov     R7, A
1082 FF               3578             mov     R7, A
1083 FF               3579             mov     R7, A
1084 FF               3580             mov     R7, A
1085 FF               3581             mov     R7, A
1086 FF               3582             mov     R7, A
1087 FF               3583             mov     R7, A
1088 FF               3584             mov     R7, A
1089 FF               3585             mov     R7, A
108A FF               3586             mov     R7, A
108B FF               3587             mov     R7, A
108C FF               3588             mov     R7, A
108D FF               3589             mov     R7, A
108E FF               3590             mov     R7, A
108F FF               3591             mov     R7, A
1090 FF               3592             mov     R7, A
1091 FF               3593             mov     R7, A
1092 FF               3594             mov     R7, A
1093 FF               3595             mov     R7, A
1094 FF               3596             mov     R7, A
1095 FF               3597             mov     R7, A
1096 FF               3598             mov     R7, A
1097 FF               3599             mov     R7, A
1098 FF               3600             mov     R7, A
1099 FF               3601             mov     R7, A
109A FF               3602             mov     R7, A
109B FF               3603             mov     R7, A
109C FF               3604             mov     R7, A
109D FF               3605             mov     R7, A
109E FF               3606             mov     R7, A
109F FF               3607             mov     R7, A
10A0 FF               3608             mov     R7, A
10A1 FF               3609             mov     R7, A
10A2 FF               3610             mov     R7, A
10A3 FF               3611             mov     R7, A
10A4 FF               3612             mov     R7, A
10A5 FF               3613             mov     R7, A
10A6 FF               3614             mov     R7, A
10A7 FF               3615             mov     R7, A
10A8 FF               3616             mov     R7, A
10A9 FF               3617             mov     R7, A
10AA FF               3618             mov     R7, A
10AB FF               3619             mov     R7, A
10AC FF               3620             mov     R7, A
10AD FF               3621             mov     R7, A
10AE FF               3622             mov     R7, A
10AF FF               3623             mov     R7, A
10B0 FF               3624             mov     R7, A
10B1 FF               3625             mov     R7, A
10B2 FF               3626             mov     R7, A
10B3 FF               3627             mov     R7, A
10B4 FF               3628             mov     R7, A
10B5 FF               3629             mov     R7, A
10B6 FF               3630             mov     R7, A
10B7 FF               3631             mov     R7, A
10B8 FF               3632             mov     R7, A
10B9 FF               3633             mov     R7, A
10BA FF               3634             mov     R7, A
10BB FF               3635             mov     R7, A
10BC FF               3636             mov     R7, A
10BD FF               3637             mov     R7, A
10BE FF               3638             mov     R7, A
10BF FF               3639             mov     R7, A
10C0 FF               3640             mov     R7, A
10C1 FF               3641             mov     R7, A
10C2 FF               3642             mov     R7, A
10C3 FF               3643             mov     R7, A
10C4 FF               3644             mov     R7, A
10C5 FF               3645             mov     R7, A
10C6 FF               3646             mov     R7, A
10C7 FF               3647             mov     R7, A
10C8 FF               3648             mov     R7, A
10C9 FF               3649             mov     R7, A
10CA FF               3650             mov     R7, A
10CB FF               3651             mov     R7, A
10CC FF               3652             mov     R7, A
10CD FF               3653             mov     R7, A
10CE FF               3654             mov     R7, A
10CF FF               3655             mov     R7, A
10D0 FF               3656             mov     R7, A
10D1 FF               3657             mov     R7, A
10D2 FF               3658             mov     R7, A
10D3 FF               3659             mov     R7, A
10D4 FF               3660             mov     R7, A
10D5 FF               3661             mov     R7, A
10D6 FF               3662             mov     R7, A
10D7 FF               3663             mov     R7, A
10D8 FF               3664             mov     R7, A
10D9 FF               3665             mov     R7, A
10DA FF               3666             mov     R7, A
10DB FF               3667             mov     R7, A
10DC FF               3668             mov     R7, A
10DD FF               3669             mov     R7, A
10DE FF               3670             mov     R7, A
10DF FF               3671             mov     R7, A
10E0 FF               3672             mov     R7, A
10E1 FF               3673             mov     R7, A
10E2 FF               3674             mov     R7, A
10E3 FF               3675             mov     R7, A
10E4 FF               3676             mov     R7, A
10E5 FF               3677             mov     R7, A
10E6 FF               3678             mov     R7, A
10E7 FF               3679             mov     R7, A
10E8 FF               3680             mov     R7, A
10E9 FF               3681             mov     R7, A
10EA FF               3682             mov     R7, A
10EB FF               3683             mov     R7, A
10EC FF               3684             mov     R7, A
10ED FF               3685             mov     R7, A
10EE FF               3686             mov     R7, A
10EF FF               3687             mov     R7, A
10F0 FF               3688             mov     R7, A
10F1 FF               3689             mov     R7, A
10F2 FF               3690             mov     R7, A
10F3 FF               3691             mov     R7, A
10F4 FF               3692             mov     R7, A
10F5 FF               3693             mov     R7, A
10F6 FF               3694             mov     R7, A
10F7 FF               3695             mov     R7, A
10F8 FF               3696             mov     R7, A
10F9 FF               3697             mov     R7, A
10FA FF               3698             mov     R7, A
10FB FF               3699             mov     R7, A
10FC FF               3700             mov     R7, A
10FD FF               3701             mov     R7, A
10FE FF               3702             mov     R7, A
10FF FF               3703             mov     R7, A
1100 FF               3704             mov     R7, A
1101 FF               3705             mov     R7, A
1102 FF               3706             mov     R7, A
1103 FF               3707             mov     R7, A
1104 FF               3708             mov     R7, A
1105 FF               3709             mov     R7, A
1106 FF               3710             mov     R7, A
1107 FF               3711             mov     R7, A
                      3712     label53:
1108 FF               3713             mov     R7, A
1109 FF               3714             mov     R7, A
110A FF               3715             mov     R7, A
110B FF               3716             mov     R7, A
110C FF               3717             mov     R7, A
                      3718     label35:
110D FF               3719             mov     R7, A
110E FF               3720             mov     R7, A
110F FF               3721             mov     R7, A
1110 FF               3722             mov     R7, A
                      3723     label52:
1111 FF               3724             mov     R7, A
                      3725     label23:
1112 FF               3726             mov     R7, A
1113 FF               3727             mov     R7, A
1114 FF               3728             mov     R7, A
1115 FF               3729             mov     R7, A
1116 FF               3730             mov     R7, A
1117 FF               3731             mov     R7, A
1118 FF               3732             mov     R7, A
1119 FF               3733             mov     R7, A
111A FF               3734             mov     R7, A
111B FF               3735             mov     R7, A
111C FF               3736             mov     R7, A
111D FF               3737             mov     R7, A
111E FF               3738             mov     R7, A
                      3739     label61:
111F FF               3740             mov     R7, A
1120 FF               3741             mov     R7, A
1121 FF               3742             mov     R7, A
1122 FF               3743             mov     R7, A
1123 FF               3744             mov     R7, A
1124 FF               3745             mov     R7, A
1125 FF               3746             mov     R7, A
1126 FF               3747             mov     R7, A
1127 FF               3748             mov     R7, A
1128 FF               3749             mov     R7, A
1129 FF               3750             mov     R7, A
112A FF               3751             mov     R7, A
112B FF               3752             mov     R7, A
112C FF               3753             mov     R7, A
112D FF               3754             mov     R7, A
112E FF               3755             mov     R7, A
112F FF               3756             mov     R7, A
1130 FF               3757             mov     R7, A
1131 FF               3758             mov     R7, A
1132 FF               3759             mov     R7, A
1133 FF               3760             mov     R7, A
1134 FF               3761             mov     R7, A
1135 FF               3762             mov     R7, A
1136 FF               3763             mov     R7, A
1137 FF               3764             mov     R7, A
1138 FF               3765             mov     R7, A
1139 FF               3766             mov     R7, A
113A FF               3767             mov     R7, A
113B FF               3768             mov     R7, A
113C FF               3769             mov     R7, A
113D FF               3770             mov     R7, A
113E FF               3771             mov     R7, A
113F FF               3772             mov     R7, A
1140 FF               3773             mov     R7, A
1141 FF               3774             mov     R7, A
1142 FF               3775             mov     R7, A
1143 FF               3776             mov     R7, A
1144 FF               3777             mov     R7, A
1145 FF               3778             mov     R7, A
1146 FF               3779             mov     R7, A
1147 FF               3780             mov     R7, A
1148 FF               3781             mov     R7, A
1149 FF               3782             mov     R7, A
114A FF               3783             mov     R7, A
114B FF               3784             mov     R7, A
114C FF               3785             mov     R7, A
114D FF               3786             mov     R7, A
114E FF               3787             mov     R7, A
114F FF               3788             mov     R7, A
1150 FF               3789             mov     R7, A
1151 FF               3790             mov     R7, A
1152 FF               3791             mov     R7, A
1153 FF               3792             mov     R7, A
1154 FF               3793             mov     R7, A
1155 FF               3794             mov     R7, A
1156 FF               3795             mov     R7, A
1157 FF               3796             mov     R7, A
1158 FF               3797             mov     R7, A
1159 FF               3798             mov     R7, A
115A FF               3799             mov     R7, A
115B FF               3800             mov     R7, A
115C FF               3801             mov     R7, A
115D FF               3802             mov     R7, A
115E FF               3803             mov     R7, A
115F FF               3804             mov     R7, A
1160 FF               3805             mov     R7, A
1161 FF               3806             mov     R7, A
1162 FF               3807             mov     R7, A
1163 FF               3808             mov     R7, A
1164 FF               3809             mov     R7, A
1165 FF               3810             mov     R7, A
1166 FF               3811             mov     R7, A
1167 FF               3812             mov     R7, A
1168 FF               3813             mov     R7, A
1169 FF               3814             mov     R7, A
116A FF               3815             mov     R7, A
116B FF               3816             mov     R7, A
116C FF               3817             mov     R7, A
116D FF               3818             mov     R7, A
116E FF               3819             mov     R7, A
116F FF               3820             mov     R7, A
1170 FF               3821             mov     R7, A
1171 FF               3822             mov     R7, A
1172 FF               3823             mov     R7, A
1173 FF               3824             mov     R7, A
1174 FF               3825             mov     R7, A
1175 FF               3826             mov     R7, A
1176 FF               3827             mov     R7, A
1177 FF               3828             mov     R7, A
1178 FF               3829             mov     R7, A
1179 FF               3830             mov     R7, A
117A FF               3831             mov     R7, A
117B FF               3832             mov     R7, A
117C FF               3833             mov     R7, A
117D FF               3834             mov     R7, A
117E FF               3835             mov     R7, A
117F FF               3836             mov     R7, A
1180 FF               3837             mov     R7, A
1181 FF               3838             mov     R7, A
1182 FF               3839             mov     R7, A
1183 FF               3840             mov     R7, A
1184 FF               3841             mov     R7, A
1185 FF               3842             mov     R7, A
1186 FF               3843             mov     R7, A
1187 FF               3844             mov     R7, A
1188 FF               3845             mov     R7, A
1189 FF               3846             mov     R7, A
118A FF               3847             mov     R7, A
118B FF               3848             mov     R7, A
118C FF               3849             mov     R7, A
118D FF               3850             mov     R7, A
118E FF               3851             mov     R7, A
118F FF               3852             mov     R7, A
1190 FF               3853             mov     R7, A
1191 FF               3854             mov     R7, A
1192 FF               3855             mov     R7, A
1193 FF               3856             mov     R7, A
1194 FF               3857             mov     R7, A
1195 FF               3858             mov     R7, A
1196 FF               3859             mov     R7, A
1197 FF               3860             mov     R7, A
1198 FF               3861             mov     R7, A
1199 FF               3862             mov     R7, A
119A FF               3863             mov     R7, A
119B FF               3864             mov     R7, A
119C FF               3865             mov     R7, A
119D FF               3866             mov     R7, A
119E FF               3867             mov     R7, A
119F FF               3868             mov     R7, A
11A0 FF               3869             mov     R7, A
11A1 FF               3870             mov     R7, A
11A2 FF               3871             mov     R7, A
11A3 FF               3872             mov     R7, A
11A4 FF               3873             mov     R7, A
11A5 FF               3874             mov     R7, A
11A6 FF               3875             mov     R7, A
11A7 FF               3876             mov     R7, A
11A8 FF               3877             mov     R7, A
11A9 FF               3878             mov     R7, A
11AA FF               3879             mov     R7, A
11AB FF               3880             mov     R7, A
11AC FF               3881             mov     R7, A
11AD FF               3882             mov     R7, A
11AE FF               3883             mov     R7, A
11AF FF               3884             mov     R7, A
11B0 FF               3885             mov     R7, A
11B1 FF               3886             mov     R7, A
11B2 FF               3887             mov     R7, A
11B3 FF               3888             mov     R7, A
11B4 FF               3889             mov     R7, A
11B5 FF               3890             mov     R7, A
11B6 FF               3891             mov     R7, A
11B7 FF               3892             mov     R7, A
11B8 FF               3893             mov     R7, A
11B9 FF               3894             mov     R7, A
11BA FF               3895             mov     R7, A
11BB FF               3896             mov     R7, A
11BC FF               3897             mov     R7, A
11BD FF               3898             mov     R7, A
11BE FF               3899             mov     R7, A
11BF FF               3900             mov     R7, A
11C0 FF               3901             mov     R7, A
11C1 FF               3902             mov     R7, A
11C2 FF               3903             mov     R7, A
11C3 FF               3904             mov     R7, A
11C4 FF               3905             mov     R7, A
11C5 FF               3906             mov     R7, A
11C6 FF               3907             mov     R7, A
11C7 FF               3908             mov     R7, A
11C8 FF               3909             mov     R7, A
11C9 FF               3910             mov     R7, A
11CA FF               3911             mov     R7, A
11CB FF               3912             mov     R7, A
11CC FF               3913             mov     R7, A
11CD FF               3914             mov     R7, A
11CE FF               3915             mov     R7, A
11CF FF               3916             mov     R7, A
11D0 FF               3917             mov     R7, A
11D1 FF               3918             mov     R7, A
11D2 FF               3919             mov     R7, A
11D3 FF               3920             mov     R7, A
11D4 FF               3921             mov     R7, A
11D5 FF               3922             mov     R7, A
11D6 FF               3923             mov     R7, A
11D7 FF               3924             mov     R7, A
11D8 FF               3925             mov     R7, A
11D9 FF               3926             mov     R7, A
11DA FF               3927             mov     R7, A
11DB FF               3928             mov     R7, A
11DC FF               3929             mov     R7, A
11DD FF               3930             mov     R7, A
11DE FF               3931             mov     R7, A
11DF FF               3932             mov     R7, A
11E0 FF               3933             mov     R7, A
11E1 FF               3934             mov     R7, A
11E2 FF               3935             mov     R7, A
11E3 FF               3936             mov     R7, A
11E4 FF               3937             mov     R7, A
11E5 FF               3938             mov     R7, A
11E6 FF               3939             mov     R7, A
11E7 FF               3940             mov     R7, A
11E8 FF               3941             mov     R7, A
11E9 FF               3942             mov     R7, A
11EA FF               3943             mov     R7, A
11EB FF               3944             mov     R7, A
11EC FF               3945             mov     R7, A
11ED FF               3946             mov     R7, A
11EE FF               3947             mov     R7, A
11EF FF               3948             mov     R7, A
11F0 FF               3949             mov     R7, A
11F1 FF               3950             mov     R7, A
11F2 FF               3951             mov     R7, A
11F3 FF               3952             mov     R7, A
11F4 FF               3953             mov     R7, A
11F5 FF               3954             mov     R7, A
11F6 FF               3955             mov     R7, A
11F7 FF               3956             mov     R7, A
11F8 FF               3957             mov     R7, A
11F9 FF               3958             mov     R7, A
11FA FF               3959             mov     R7, A
11FB FF               3960             mov     R7, A
11FC FF               3961             mov     R7, A
11FD FF               3962             mov     R7, A
11FE FF               3963             mov     R7, A
11FF FF               3964             mov     R7, A
1200 FF               3965             mov     R7, A
1201 FF               3966             mov     R7, A
1202 FF               3967             mov     R7, A
1203 FF               3968             mov     R7, A
1204 FF               3969             mov     R7, A
1205 FF               3970             mov     R7, A
1206 FF               3971             mov     R7, A
1207 FF               3972             mov     R7, A
1208 FF               3973             mov     R7, A
1209 FF               3974             mov     R7, A
120A FF               3975             mov     R7, A
120B FF               3976             mov     R7, A
120C FF               3977             mov     R7, A
120D FF               3978             mov     R7, A
120E FF               3979             mov     R7, A
120F FF               3980             mov     R7, A
1210 FF               3981             mov     R7, A
1211 FF               3982             mov     R7, A
1212 FF               3983             mov     R7, A
1213 FF               3984             mov     R7, A
1214 FF               3985             mov     R7, A
1215 FF               3986             mov     R7, A
1216 FF               3987             mov     R7, A
1217 FF               3988             mov     R7, A
1218 FF               3989             mov     R7, A
1219 FF               3990             mov     R7, A
121A FF               3991             mov     R7, A
121B FF               3992             mov     R7, A
121C FF               3993             mov     R7, A
121D FF               3994             mov     R7, A
121E FF               3995             mov     R7, A
121F FF               3996             mov     R7, A
1220 FF               3997             mov     R7, A
1221 FF               3998             mov     R7, A
1222 FF               3999             mov     R7, A
1223 FF               4000             mov     R7, A
1224 FF               4001             mov     R7, A
1225 FF               4002             mov     R7, A
1226 FF               4003             mov     R7, A
1227 FF               4004             mov     R7, A
1228 FF               4005             mov     R7, A
1229 FF               4006             mov     R7, A
122A FF               4007             mov     R7, A
122B FF               4008             mov     R7, A
122C FF               4009             mov     R7, A
122D FF               4010             mov     R7, A
122E FF               4011             mov     R7, A
122F FF               4012             mov     R7, A
1230 FF               4013             mov     R7, A
1231 FF               4014             mov     R7, A
1232 FF               4015             mov     R7, A
1233 FF               4016             mov     R7, A
1234 FF               4017             mov     R7, A
1235 FF               4018             mov     R7, A
1236 FF               4019             mov     R7, A
1237 FF               4020             mov     R7, A
1238 FF               4021             mov     R7, A
1239 FF               4022             mov     R7, A
123A FF               4023             mov     R7, A
123B FF               4024             mov     R7, A
123C FF               4025             mov     R7, A
123D FF               4026             mov     R7, A
123E FF               4027             mov     R7, A
123F FF               4028             mov     R7, A
1240 FF               4029             mov     R7, A
1241 FF               4030             mov     R7, A
1242 FF               4031             mov     R7, A
1243 FF               4032             mov     R7, A
1244 FF               4033             mov     R7, A
1245 FF               4034             mov     R7, A
1246 FF               4035             mov     R7, A
1247 FF               4036             mov     R7, A
1248 FF               4037             mov     R7, A
1249 FF               4038             mov     R7, A
124A FF               4039             mov     R7, A
124B FF               4040             mov     R7, A
124C FF               4041             mov     R7, A
124D FF               4042             mov     R7, A
124E FF               4043             mov     R7, A
124F FF               4044             mov     R7, A
1250 FF               4045             mov     R7, A
1251 FF               4046             mov     R7, A
1252 FF               4047             mov     R7, A
1253 FF               4048             mov     R7, A
1254 FF               4049             mov     R7, A
1255 FF               4050             mov     R7, A
1256 FF               4051             mov     R7, A
1257 FF               4052             mov     R7, A
1258 FF               4053             mov     R7, A
1259 FF               4054             mov     R7, A
125A FF               4055             mov     R7, A
125B FF               4056             mov     R7, A
125C FF               4057             mov     R7, A
125D FF               4058             mov     R7, A
125E FF               4059             mov     R7, A
125F FF               4060             mov     R7, A
1260 FF               4061             mov     R7, A
1261 FF               4062             mov     R7, A
1262 FF               4063             mov     R7, A
1263 FF               4064             mov     R7, A
1264 FF               4065             mov     R7, A
1265 FF               4066             mov     R7, A
1266 FF               4067             mov     R7, A
1267 FF               4068             mov     R7, A
1268 FF               4069             mov     R7, A
1269 FF               4070             mov     R7, A
126A FF               4071             mov     R7, A
126B FF               4072             mov     R7, A
126C FF               4073             mov     R7, A
126D FF               4074             mov     R7, A
126E FF               4075             mov     R7, A
126F FF               4076             mov     R7, A
1270 FF               4077             mov     R7, A
1271 FF               4078             mov     R7, A
1272 FF               4079             mov     R7, A
1273 FF               4080             mov     R7, A
1274 FF               4081             mov     R7, A
1275 FF               4082             mov     R7, A
1276 FF               4083             mov     R7, A
1277 FF               4084             mov     R7, A
1278 FF               4085             mov     R7, A
1279 FF               4086             mov     R7, A
127A FF               4087             mov     R7, A
127B FF               4088             mov     R7, A
127C FF               4089             mov     R7, A
127D FF               4090             mov     R7, A
127E FF               4091             mov     R7, A
127F FF               4092             mov     R7, A
1280 FF               4093             mov     R7, A
1281 FF               4094             mov     R7, A
1282 FF               4095             mov     R7, A
1283 FF               4096             mov     R7, A
1284 FF               4097             mov     R7, A
1285 FF               4098             mov     R7, A
1286 FF               4099             mov     R7, A
1287 FF               4100             mov     R7, A
1288 FF               4101             mov     R7, A
1289 FF               4102             mov     R7, A
128A FF               4103             mov     R7, A
128B FF               4104             mov     R7, A
128C FF               4105             mov     R7, A
128D FF               4106             mov     R7, A
128E FF               4107             mov     R7, A
128F FF               4108             mov     R7, A
1290 FF               4109             mov     R7, A
1291 FF               4110             mov     R7, A
1292 FF               4111             mov     R7, A
1293 FF               4112             mov     R7, A
1294 FF               4113             mov     R7, A
1295 FF               4114             mov     R7, A
1296 FF               4115             mov     R7, A
1297 FF               4116             mov     R7, A
1298 FF               4117             mov     R7, A
1299 FF               4118             mov     R7, A
129A FF               4119             mov     R7, A
129B FF               4120             mov     R7, A
129C FF               4121             mov     R7, A
129D FF               4122             mov     R7, A
129E FF               4123             mov     R7, A
129F FF               4124             mov     R7, A
12A0 FF               4125             mov     R7, A
12A1 FF               4126             mov     R7, A
12A2 FF               4127             mov     R7, A
12A3 FF               4128             mov     R7, A
12A4 FF               4129             mov     R7, A
12A5 FF               4130             mov     R7, A
12A6 FF               4131             mov     R7, A
12A7 FF               4132             mov     R7, A
12A8 FF               4133             mov     R7, A
12A9 FF               4134             mov     R7, A
12AA FF               4135             mov     R7, A
12AB FF               4136             mov     R7, A
12AC FF               4137             mov     R7, A
12AD FF               4138             mov     R7, A
12AE FF               4139             mov     R7, A
12AF FF               4140             mov     R7, A
12B0 FF               4141             mov     R7, A
12B1 FF               4142             mov     R7, A
12B2 FF               4143             mov     R7, A
12B3 FF               4144             mov     R7, A
12B4 FF               4145             mov     R7, A
12B5 FF               4146             mov     R7, A
12B6 FF               4147             mov     R7, A
12B7 FF               4148             mov     R7, A
12B8 FF               4149             mov     R7, A
12B9 FF               4150             mov     R7, A
12BA FF               4151             mov     R7, A
12BB FF               4152             mov     R7, A
12BC FF               4153             mov     R7, A
12BD FF               4154             mov     R7, A
12BE FF               4155             mov     R7, A
12BF FF               4156             mov     R7, A
12C0 FF               4157             mov     R7, A
12C1 FF               4158             mov     R7, A
12C2 FF               4159             mov     R7, A
12C3 FF               4160             mov     R7, A
12C4 FF               4161             mov     R7, A
12C5 FF               4162             mov     R7, A
12C6 FF               4163             mov     R7, A
12C7 FF               4164             mov     R7, A
12C8 FF               4165             mov     R7, A
12C9 FF               4166             mov     R7, A
12CA FF               4167             mov     R7, A
12CB FF               4168             mov     R7, A
12CC FF               4169             mov     R7, A
12CD FF               4170             mov     R7, A
12CE FF               4171             mov     R7, A
12CF FF               4172             mov     R7, A
12D0 FF               4173             mov     R7, A
12D1 FF               4174             mov     R7, A
12D2 FF               4175             mov     R7, A
12D3 FF               4176             mov     R7, A
12D4 FF               4177             mov     R7, A
12D5 FF               4178             mov     R7, A
12D6 FF               4179             mov     R7, A
12D7 FF               4180             mov     R7, A
12D8 FF               4181             mov     R7, A
12D9 FF               4182             mov     R7, A
12DA FF               4183             mov     R7, A
12DB FF               4184             mov     R7, A
12DC FF               4185             mov     R7, A
12DD FF               4186             mov     R7, A
12DE FF               4187             mov     R7, A
12DF FF               4188             mov     R7, A
12E0 FF               4189             mov     R7, A
12E1 FF               4190             mov     R7, A
12E2 FF               4191             mov     R7, A
12E3 FF               4192             mov     R7, A
12E4 FF               4193             mov     R7, A
12E5 FF               4194             mov     R7, A
12E6 FF               4195             mov     R7, A
12E7 FF               4196             mov     R7, A
12E8 FF               4197             mov     R7, A
12E9 FF               4198             mov     R7, A
12EA FF               4199             mov     R7, A
12EB FF               4200             mov     R7, A
12EC FF               4201             mov     R7, A
12ED FF               4202             mov     R7, A
12EE FF               4203             mov     R7, A
12EF FF               4204             mov     R7, A
12F0 FF               4205             mov     R7, A
12F1 FF               4206             mov     R7, A
12F2 FF               4207             mov     R7, A
12F3 FF               4208             mov     R7, A
12F4 FF               4209             mov     R7, A
12F5 FF               4210             mov     R7, A
12F6 FF               4211             mov     R7, A
12F7 FF               4212             mov     R7, A
12F8 FF               4213             mov     R7, A
12F9 FF               4214             mov     R7, A
12FA FF               4215             mov     R7, A
12FB FF               4216             mov     R7, A
12FC FF               4217             mov     R7, A
12FD FF               4218             mov     R7, A
12FE FF               4219             mov     R7, A
12FF FF               4220             mov     R7, A
1300 FF               4221             mov     R7, A
1301 FF               4222             mov     R7, A
1302 FF               4223             mov     R7, A
1303 FF               4224             mov     R7, A
                      4225     label45:
1304 FF               4226             mov     R7, A
1305 FF               4227             mov     R7, A
1306 FF               4228             mov     R7, A
1307 FF               4229             mov     R7, A
1308 FF               4230             mov     R7, A
1309 FF               4231             mov     R7, A
130A FF               4232             mov     R7, A
130B FF               4233             mov     R7, A
130C FF               4234             mov     R7, A
130D FF               4235             mov     R7, A
130E FF               4236             mov     R7, A
130F FF               4237             mov     R7, A
1310 FF               4238             mov     R7, A
1311 FF               4239             mov     R7, A
1312 FF               4240             mov     R7, A
1313 FF               4241             mov     R7, A
1314 FF               4242             mov     R7, A
1315 FF               4243             mov     R7, A
1316 FF               4244             mov     R7, A
1317 FF               4245             mov     R7, A
1318 FF               4246             mov     R7, A
1319 FF               4247             mov     R7, A
131A FF               4248             mov     R7, A
131B FF               4249             mov     R7, A
131C FF               4250             mov     R7, A
131D FF               4251             mov     R7, A
131E FF               4252             mov     R7, A
131F FF               4253             mov     R7, A
1320 FF               4254             mov     R7, A
1321 FF               4255             mov     R7, A
1322 FF               4256             mov     R7, A
1323 FF               4257             mov     R7, A
1324 FF               4258             mov     R7, A
1325 FF               4259             mov     R7, A
1326 FF               4260             mov     R7, A
1327 FF               4261             mov     R7, A
1328 FF               4262             mov     R7, A
1329 FF               4263             mov     R7, A
132A FF               4264             mov     R7, A
132B FF               4265             mov     R7, A
132C FF               4266             mov     R7, A
132D FF               4267             mov     R7, A
132E FF               4268             mov     R7, A
132F FF               4269             mov     R7, A
1330 FF               4270             mov     R7, A
1331 FF               4271             mov     R7, A
1332 FF               4272             mov     R7, A
1333 FF               4273             mov     R7, A
1334 FF               4274             mov     R7, A
1335 FF               4275             mov     R7, A
1336 FF               4276             mov     R7, A
1337 FF               4277             mov     R7, A
1338 FF               4278             mov     R7, A
1339 FF               4279             mov     R7, A
133A FF               4280             mov     R7, A
133B FF               4281             mov     R7, A
133C FF               4282             mov     R7, A
133D FF               4283             mov     R7, A
133E FF               4284             mov     R7, A
133F FF               4285             mov     R7, A
1340 FF               4286             mov     R7, A
1341 FF               4287             mov     R7, A
1342 FF               4288             mov     R7, A
1343 FF               4289             mov     R7, A
1344 FF               4290             mov     R7, A
1345 FF               4291             mov     R7, A
1346 FF               4292             mov     R7, A
1347 FF               4293             mov     R7, A
1348 FF               4294             mov     R7, A
1349 FF               4295             mov     R7, A
134A FF               4296             mov     R7, A
134B FF               4297             mov     R7, A
134C FF               4298             mov     R7, A
134D FF               4299             mov     R7, A
134E FF               4300             mov     R7, A
134F FF               4301             mov     R7, A
1350 FF               4302             mov     R7, A
1351 FF               4303             mov     R7, A
1352 FF               4304             mov     R7, A
1353 FF               4305             mov     R7, A
1354 FF               4306             mov     R7, A
1355 FF               4307             mov     R7, A
1356 FF               4308             mov     R7, A
1357 FF               4309             mov     R7, A
1358 FF               4310             mov     R7, A
1359 FF               4311             mov     R7, A
135A FF               4312             mov     R7, A
135B FF               4313             mov     R7, A
135C FF               4314             mov     R7, A
135D FF               4315             mov     R7, A
135E FF               4316             mov     R7, A
135F FF               4317             mov     R7, A
1360 FF               4318             mov     R7, A
1361 FF               4319             mov     R7, A
1362 FF               4320             mov     R7, A
1363 FF               4321             mov     R7, A
1364 FF               4322             mov     R7, A
1365 FF               4323             mov     R7, A
1366 FF               4324             mov     R7, A
1367 FF               4325             mov     R7, A
1368 FF               4326             mov     R7, A
1369 FF               4327             mov     R7, A
136A FF               4328             mov     R7, A
136B FF               4329             mov     R7, A
136C FF               4330             mov     R7, A
136D FF               4331             mov     R7, A
136E FF               4332             mov     R7, A
136F FF               4333             mov     R7, A
1370 FF               4334             mov     R7, A
1371 FF               4335             mov     R7, A
1372 FF               4336             mov     R7, A
1373 FF               4337             mov     R7, A
1374 FF               4338             mov     R7, A
1375 FF               4339             mov     R7, A
1376 FF               4340             mov     R7, A
1377 FF               4341             mov     R7, A
1378 FF               4342             mov     R7, A
1379 FF               4343             mov     R7, A
137A FF               4344             mov     R7, A
137B FF               4345             mov     R7, A
137C FF               4346             mov     R7, A
137D FF               4347             mov     R7, A
137E FF               4348             mov     R7, A
137F FF               4349             mov     R7, A
1380 FF               4350             mov     R7, A
1381 FF               4351             mov     R7, A
1382 FF               4352             mov     R7, A
1383 FF               4353             mov     R7, A
1384 FF               4354             mov     R7, A
1385 FF               4355             mov     R7, A
1386 FF               4356             mov     R7, A
1387 FF               4357             mov     R7, A
1388 FF               4358             mov     R7, A
1389 FF               4359             mov     R7, A
138A FF               4360             mov     R7, A
138B FF               4361             mov     R7, A
138C FF               4362             mov     R7, A
138D FF               4363             mov     R7, A
138E FF               4364             mov     R7, A
138F FF               4365             mov     R7, A
1390 FF               4366             mov     R7, A
1391 FF               4367             mov     R7, A
1392 FF               4368             mov     R7, A
1393 FF               4369             mov     R7, A
1394 FF               4370             mov     R7, A
1395 FF               4371             mov     R7, A
1396 FF               4372             mov     R7, A
1397 FF               4373             mov     R7, A
1398 FF               4374             mov     R7, A
1399 FF               4375             mov     R7, A
139A FF               4376             mov     R7, A
139B FF               4377             mov     R7, A
139C FF               4378             mov     R7, A
139D FF               4379             mov     R7, A
139E FF               4380             mov     R7, A
139F FF               4381             mov     R7, A
13A0 FF               4382             mov     R7, A
13A1 FF               4383             mov     R7, A
13A2 FF               4384             mov     R7, A
13A3 FF               4385             mov     R7, A
13A4 FF               4386             mov     R7, A
13A5 FF               4387             mov     R7, A
13A6 FF               4388             mov     R7, A
13A7 FF               4389             mov     R7, A
13A8 FF               4390             mov     R7, A
13A9 FF               4391             mov     R7, A
13AA FF               4392             mov     R7, A
13AB FF               4393             mov     R7, A
13AC FF               4394             mov     R7, A
13AD FF               4395             mov     R7, A
13AE FF               4396             mov     R7, A
13AF FF               4397             mov     R7, A
13B0 FF               4398             mov     R7, A
13B1 FF               4399             mov     R7, A
13B2 FF               4400             mov     R7, A
13B3 FF               4401             mov     R7, A
13B4 FF               4402             mov     R7, A
13B5 FF               4403             mov     R7, A
13B6 FF               4404             mov     R7, A
13B7 FF               4405             mov     R7, A
13B8 FF               4406             mov     R7, A
13B9 FF               4407             mov     R7, A
13BA FF               4408             mov     R7, A
13BB FF               4409             mov     R7, A
13BC FF               4410             mov     R7, A
13BD FF               4411             mov     R7, A
13BE FF               4412             mov     R7, A
13BF FF               4413             mov     R7, A
13C0 FF               4414             mov     R7, A
13C1 FF               4415             mov     R7, A
13C2 FF               4416             mov     R7, A
13C3 FF               4417             mov     R7, A
13C4 FF               4418             mov     R7, A
13C5 FF               4419             mov     R7, A
13C6 FF               4420             mov     R7, A
13C7 FF               4421             mov     R7, A
13C8 FF               4422             mov     R7, A
13C9 FF               4423             mov     R7, A
13CA FF               4424             mov     R7, A
13CB FF               4425             mov     R7, A
13CC FF               4426             mov     R7, A
13CD FF               4427             mov     R7, A
13CE FF               4428             mov     R7, A
13CF FF               4429             mov     R7, A
13D0 FF               4430             mov     R7, A
13D1 FF               4431             mov     R7, A
13D2 FF               4432             mov     R7, A
13D3 FF               4433             mov     R7, A
13D4 FF               4434             mov     R7, A
13D5 FF               4435             mov     R7, A
13D6 FF               4436             mov     R7, A
13D7 FF               4437             mov     R7, A
13D8 FF               4438             mov     R7, A
13D9 FF               4439             mov     R7, A
13DA FF               4440             mov     R7, A
13DB FF               4441             mov     R7, A
13DC FF               4442             mov     R7, A
13DD FF               4443             mov     R7, A
13DE FF               4444             mov     R7, A
13DF FF               4445             mov     R7, A
13E0 FF               4446             mov     R7, A
13E1 FF               4447             mov     R7, A
13E2 FF               4448             mov     R7, A
13E3 FF               4449             mov     R7, A
13E4 FF               4450             mov     R7, A
13E5 FF               4451             mov     R7, A
13E6 FF               4452             mov     R7, A
13E7 FF               4453             mov     R7, A
13E8 FF               4454             mov     R7, A
13E9 FF               4455             mov     R7, A
13EA FF               4456             mov     R7, A
13EB FF               4457             mov     R7, A
13EC FF               4458             mov     R7, A
13ED FF               4459             mov     R7, A
13EE FF               4460             mov     R7, A
13EF FF               4461             mov     R7, A
13F0 FF               4462             mov     R7, A
13F1 FF               4463             mov     R7, A
13F2 FF               4464             mov     R7, A
13F3 FF               4465             mov     R7, A
13F4 FF               4466             mov     R7, A
13F5 FF               4467             mov     R7, A
13F6 FF               4468             mov     R7, A
13F7 FF               4469             mov     R7, A
13F8 FF               4470             mov     R7, A
13F9 FF               4471             mov     R7, A
13FA FF               4472             mov     R7, A
13FB FF               4473             mov     R7, A
13FC FF               4474             mov     R7, A
13FD FF               4475             mov     R7, A
13FE FF               4476             mov     R7, A
13FF FF               4477             mov     R7, A
1400 FF               4478             mov     R7, A
1401 FF               4479             mov     R7, A
1402 FF               4480             mov     R7, A
1403 FF               4481             mov     R7, A
1404 FF               4482             mov     R7, A
1405 FF               4483             mov     R7, A
1406 FF               4484             mov     R7, A
1407 FF               4485             mov     R7, A
1408 FF               4486             mov     R7, A
1409 FF               4487             mov     R7, A
140A FF               4488             mov     R7, A
140B FF               4489             mov     R7, A
140C FF               4490             mov     R7, A
140D FF               4491             mov     R7, A
140E FF               4492             mov     R7, A
140F FF               4493             mov     R7, A
1410 FF               4494             mov     R7, A
1411 FF               4495             mov     R7, A
1412 FF               4496             mov     R7, A
1413 FF               4497             mov     R7, A
1414 FF               4498             mov     R7, A
1415 FF               4499             mov     R7, A
1416 FF               4500             mov     R7, A
1417 FF               4501             mov     R7, A
1418 FF               4502             mov     R7, A
1419 FF               4503             mov     R7, A
141A FF               4504             mov     R7, A
141B FF               4505             mov     R7, A
141C FF               4506             mov     R7, A
141D FF               4507             mov     R7, A
141E FF               4508             mov     R7, A
141F FF               4509             mov     R7, A
1420 FF               4510             mov     R7, A
1421 FF               4511             mov     R7, A
1422 FF               4512             mov     R7, A
1423 FF               4513             mov     R7, A
1424 FF               4514             mov     R7, A
1425 FF               4515             mov     R7, A
1426 FF               4516             mov     R7, A
1427 FF               4517             mov     R7, A
1428 FF               4518             mov     R7, A
1429 FF               4519             mov     R7, A
142A FF               4520             mov     R7, A
142B FF               4521             mov     R7, A
142C FF               4522             mov     R7, A
142D FF               4523             mov     R7, A
142E FF               4524             mov     R7, A
142F FF               4525             mov     R7, A
1430 FF               4526             mov     R7, A
1431 FF               4527             mov     R7, A
1432 FF               4528             mov     R7, A
1433 FF               4529             mov     R7, A
1434 FF               4530             mov     R7, A
1435 FF               4531             mov     R7, A
1436 FF               4532             mov     R7, A
1437 FF               4533             mov     R7, A
1438 FF               4534             mov     R7, A
1439 FF               4535             mov     R7, A
143A FF               4536             mov     R7, A
143B FF               4537             mov     R7, A
143C FF               4538             mov     R7, A
143D FF               4539             mov     R7, A
143E FF               4540             mov     R7, A
143F FF               4541             mov     R7, A
1440 FF               4542             mov     R7, A
1441 FF               4543             mov     R7, A
1442 FF               4544             mov     R7, A
1443 FF               4545             mov     R7, A
1444 FF               4546             mov     R7, A
1445 FF               4547             mov     R7, A
1446 FF               4548             mov     R7, A
1447 FF               4549             mov     R7, A
1448 FF               4550             mov     R7, A
1449 FF               4551             mov     R7, A
144A FF               4552             mov     R7, A
144B FF               4553             mov     R7, A
144C FF               4554             mov     R7, A
144D FF               4555             mov     R7, A
144E FF               4556             mov     R7, A
144F FF               4557             mov     R7, A
1450 FF               4558             mov     R7, A
1451 FF               4559             mov     R7, A
1452 FF               4560             mov     R7, A
1453 FF               4561             mov     R7, A
1454 FF               4562             mov     R7, A
1455 FF               4563             mov     R7, A
1456 FF               4564             mov     R7, A
1457 FF               4565             mov     R7, A
1458 FF               4566             mov     R7, A
1459 FF               4567             mov     R7, A
145A FF               4568             mov     R7, A
145B FF               4569             mov     R7, A
145C FF               4570             mov     R7, A
145D FF               4571             mov     R7, A
145E FF               4572             mov     R7, A
145F FF               4573             mov     R7, A
1460 FF               4574             mov     R7, A
1461 FF               4575             mov     R7, A
1462 FF               4576             mov     R7, A
1463 FF               4577             mov     R7, A
1464 FF               4578             mov     R7, A
1465 FF               4579             mov     R7, A
1466 FF               4580             mov     R7, A
1467 FF               4581             mov     R7, A
1468 FF               4582             mov     R7, A
1469 FF               4583             mov     R7, A
146A FF               4584             mov     R7, A
146B FF               4585             mov     R7, A
146C FF               4586             mov     R7, A
146D FF               4587             mov     R7, A
146E FF               4588             mov     R7, A
146F FF               4589             mov     R7, A
1470 FF               4590             mov     R7, A
1471 FF               4591             mov     R7, A
1472 FF               4592             mov     R7, A
1473 FF               4593             mov     R7, A
1474 FF               4594             mov     R7, A
1475 FF               4595             mov     R7, A
1476 FF               4596             mov     R7, A
1477 FF               4597             mov     R7, A
1478 FF               4598             mov     R7, A
1479 FF               4599             mov     R7, A
147A FF               4600             mov     R7, A
147B FF               4601             mov     R7, A
147C FF               4602             mov     R7, A
147D FF               4603             mov     R7, A
147E FF               4604             mov     R7, A
147F FF               4605             mov     R7, A
1480 FF               4606             mov     R7, A
1481 FF               4607             mov     R7, A
1482 FF               4608             mov     R7, A
1483 FF               4609             mov     R7, A
1484 FF               4610             mov     R7, A
1485 FF               4611             mov     R7, A
1486 FF               4612             mov     R7, A
1487 FF               4613             mov     R7, A
1488 FF               4614             mov     R7, A
1489 FF               4615             mov     R7, A
148A FF               4616             mov     R7, A
148B FF               4617             mov     R7, A
148C FF               4618             mov     R7, A
148D FF               4619             mov     R7, A
148E FF               4620             mov     R7, A
148F FF               4621             mov     R7, A
1490 FF               4622             mov     R7, A
1491 FF               4623             mov     R7, A
1492 FF               4624             mov     R7, A
1493 FF               4625             mov     R7, A
1494 FF               4626             mov     R7, A
1495 FF               4627             mov     R7, A
1496 FF               4628             mov     R7, A
1497 FF               4629             mov     R7, A
1498 FF               4630             mov     R7, A
1499 FF               4631             mov     R7, A
149A FF               4632             mov     R7, A
149B FF               4633             mov     R7, A
149C FF               4634             mov     R7, A
149D FF               4635             mov     R7, A
149E FF               4636             mov     R7, A
149F FF               4637             mov     R7, A
14A0 FF               4638             mov     R7, A
14A1 FF               4639             mov     R7, A
14A2 FF               4640             mov     R7, A
14A3 FF               4641             mov     R7, A
14A4 FF               4642             mov     R7, A
14A5 FF               4643             mov     R7, A
14A6 FF               4644             mov     R7, A
14A7 FF               4645             mov     R7, A
14A8 FF               4646             mov     R7, A
14A9 FF               4647             mov     R7, A
14AA FF               4648             mov     R7, A
14AB FF               4649             mov     R7, A
14AC FF               4650             mov     R7, A
14AD FF               4651             mov     R7, A
14AE FF               4652             mov     R7, A
14AF FF               4653             mov     R7, A
14B0 FF               4654             mov     R7, A
14B1 FF               4655             mov     R7, A
14B2 FF               4656             mov     R7, A
14B3 FF               4657             mov     R7, A
14B4 FF               4658             mov     R7, A
14B5 FF               4659             mov     R7, A
14B6 FF               4660             mov     R7, A
14B7 FF               4661             mov     R7, A
14B8 FF               4662             mov     R7, A
14B9 FF               4663             mov     R7, A
14BA FF               4664             mov     R7, A
14BB FF               4665             mov     R7, A
14BC FF               4666             mov     R7, A
14BD FF               4667             mov     R7, A
14BE FF               4668             mov     R7, A
14BF FF               4669             mov     R7, A
14C0 FF               4670             mov     R7, A
14C1 FF               4671             mov     R7, A
14C2 FF               4672             mov     R7, A
14C3 FF               4673             mov     R7, A
14C4 FF               4674             mov     R7, A
14C5 FF               4675             mov     R7, A
14C6 FF               4676             mov     R7, A
14C7 FF               4677             mov     R7, A
14C8 FF               4678             mov     R7, A
14C9 FF               4679             mov     R7, A
14CA FF               4680             mov     R7, A
14CB FF               4681             mov     R7, A
14CC FF               4682             mov     R7, A
14CD FF               4683             mov     R7, A
14CE FF               4684             mov     R7, A
14CF FF               4685             mov     R7, A
14D0 FF               4686             mov     R7, A
14D1 FF               4687             mov     R7, A
14D2 FF               4688             mov     R7, A
14D3 FF               4689             mov     R7, A
14D4 FF               4690             mov     R7, A
14D5 FF               4691             mov     R7, A
14D6 FF               4692             mov     R7, A
14D7 FF               4693             mov     R7, A
14D8 FF               4694             mov     R7, A
14D9 FF               4695             mov     R7, A
14DA FF               4696             mov     R7, A
14DB FF               4697             mov     R7, A
14DC FF               4698             mov     R7, A
14DD FF               4699             mov     R7, A
14DE FF               4700             mov     R7, A
14DF FF               4701             mov     R7, A
14E0 FF               4702             mov     R7, A
14E1 FF               4703             mov     R7, A
14E2 FF               4704             mov     R7, A
14E3 FF               4705             mov     R7, A
14E4 FF               4706             mov     R7, A
14E5 FF               4707             mov     R7, A
14E6 FF               4708             mov     R7, A
14E7 FF               4709             mov     R7, A
14E8 FF               4710             mov     R7, A
14E9 FF               4711             mov     R7, A
14EA FF               4712             mov     R7, A
14EB FF               4713             mov     R7, A
14EC FF               4714             mov     R7, A
14ED FF               4715             mov     R7, A
14EE FF               4716             mov     R7, A
14EF FF               4717             mov     R7, A
14F0 FF               4718             mov     R7, A
14F1 FF               4719             mov     R7, A
14F2 FF               4720             mov     R7, A
14F3 FF               4721             mov     R7, A
14F4 FF               4722             mov     R7, A
14F5 FF               4723             mov     R7, A
14F6 FF               4724             mov     R7, A
14F7 FF               4725             mov     R7, A
14F8 FF               4726             mov     R7, A
14F9 FF               4727             mov     R7, A
14FA FF               4728             mov     R7, A
14FB FF               4729             mov     R7, A
14FC FF               4730             mov     R7, A
14FD FF               4731             mov     R7, A
14FE FF               4732             mov     R7, A
14FF FF               4733             mov     R7, A
                      4734     label44:
1500 FF               4735             mov     R7, A
1501 FF               4736             mov     R7, A
1502 FF               4737             mov     R7, A
1503 FF               4738             mov     R7, A
1504 FF               4739             mov     R7, A
1505 FF               4740             mov     R7, A
1506 FF               4741             mov     R7, A
1507 FF               4742             mov     R7, A
1508 FF               4743             mov     R7, A
1509 FF               4744             mov     R7, A
150A FF               4745             mov     R7, A
150B FF               4746             mov     R7, A
150C FF               4747             mov     R7, A
150D FF               4748             mov     R7, A
150E FF               4749             mov     R7, A
150F FF               4750             mov     R7, A
1510 FF               4751             mov     R7, A
1511 FF               4752             mov     R7, A
1512 FF               4753             mov     R7, A
1513 FF               4754             mov     R7, A
1514 FF               4755             mov     R7, A
1515 FF               4756             mov     R7, A
1516 FF               4757             mov     R7, A
1517 FF               4758             mov     R7, A
1518 FF               4759             mov     R7, A
1519 FF               4760             mov     R7, A
151A FF               4761             mov     R7, A
151B FF               4762             mov     R7, A
151C FF               4763             mov     R7, A
151D FF               4764             mov     R7, A
151E FF               4765             mov     R7, A
151F FF               4766             mov     R7, A
1520 FF               4767             mov     R7, A
1521 FF               4768             mov     R7, A
1522 FF               4769             mov     R7, A
1523 FF               4770             mov     R7, A
1524 FF               4771             mov     R7, A
1525 FF               4772             mov     R7, A
1526 FF               4773             mov     R7, A
1527 FF               4774             mov     R7, A
1528 FF               4775             mov     R7, A
1529 FF               4776             mov     R7, A
152A FF               4777             mov     R7, A
152B FF               4778             mov     R7, A
152C FF               4779             mov     R7, A
152D FF               4780             mov     R7, A
152E FF               4781             mov     R7, A
152F FF               4782             mov     R7, A
1530 FF               4783             mov     R7, A
1531 FF               4784             mov     R7, A
1532 FF               4785             mov     R7, A
1533 FF               4786             mov     R7, A
1534 FF               4787             mov     R7, A
1535 FF               4788             mov     R7, A
1536 FF               4789             mov     R7, A
1537 FF               4790             mov     R7, A
1538 FF               4791             mov     R7, A
1539 FF               4792             mov     R7, A
153A FF               4793             mov     R7, A
153B FF               4794             mov     R7, A
153C FF               4795             mov     R7, A
153D FF               4796             mov     R7, A
153E FF               4797             mov     R7, A
153F FF               4798             mov     R7, A
1540 FF               4799             mov     R7, A
1541 FF               4800             mov     R7, A
1542 FF               4801             mov     R7, A
1543 FF               4802             mov     R7, A
1544 FF               4803             mov     R7, A
1545 FF               4804             mov     R7, A
1546 FF               4805             mov     R7, A
1547 FF               4806             mov     R7, A
1548 FF               4807             mov     R7, A
1549 FF               4808             mov     R7, A
154A FF               4809             mov     R7, A
154B FF               4810             mov     R7, A
154C FF               4811             mov     R7, A
154D FF               4812             mov     R7, A
154E FF               4813             mov     R7, A
154F FF               4814             mov     R7, A
1550 FF               4815             mov     R7, A
1551 FF               4816             mov     R7, A
1552 FF               4817             mov     R7, A
1553 FF               4818             mov     R7, A
1554 FF               4819             mov     R7, A
1555 FF               4820             mov     R7, A
1556 FF               4821             mov     R7, A
1557 FF               4822             mov     R7, A
1558 FF               4823             mov     R7, A
1559 FF               4824             mov     R7, A
155A FF               4825             mov     R7, A
155B FF               4826             mov     R7, A
155C FF               4827             mov     R7, A
155D FF               4828             mov     R7, A
155E FF               4829             mov     R7, A
155F FF               4830             mov     R7, A
1560 FF               4831             mov     R7, A
1561 FF               4832             mov     R7, A
1562 FF               4833             mov     R7, A
1563 FF               4834             mov     R7, A
1564 FF               4835             mov     R7, A
1565 FF               4836             mov     R7, A
1566 FF               4837             mov     R7, A
1567 FF               4838             mov     R7, A
1568 FF               4839             mov     R7, A
1569 FF               4840             mov     R7, A
156A FF               4841             mov     R7, A
156B FF               4842             mov     R7, A
156C FF               4843             mov     R7, A
156D FF               4844             mov     R7, A
156E FF               4845             mov     R7, A
156F FF               4846             mov     R7, A
1570 FF               4847             mov     R7, A
1571 FF               4848             mov     R7, A
1572 FF               4849             mov     R7, A
1573 FF               4850             mov     R7, A
1574 FF               4851             mov     R7, A
1575 FF               4852             mov     R7, A
1576 FF               4853             mov     R7, A
1577 FF               4854             mov     R7, A
1578 FF               4855             mov     R7, A
1579 FF               4856             mov     R7, A
157A FF               4857             mov     R7, A
157B FF               4858             mov     R7, A
157C FF               4859             mov     R7, A
157D FF               4860             mov     R7, A
157E FF               4861             mov     R7, A
157F FF               4862             mov     R7, A
1580 FF               4863             mov     R7, A
1581 FF               4864             mov     R7, A
1582 FF               4865             mov     R7, A
1583 FF               4866             mov     R7, A
1584 FF               4867             mov     R7, A
1585 FF               4868             mov     R7, A
1586 FF               4869             mov     R7, A
1587 FF               4870             mov     R7, A
1588 FF               4871             mov     R7, A
1589 FF               4872             mov     R7, A
158A FF               4873             mov     R7, A
158B FF               4874             mov     R7, A
158C FF               4875             mov     R7, A
158D FF               4876             mov     R7, A
158E FF               4877             mov     R7, A
158F FF               4878             mov     R7, A
1590 FF               4879             mov     R7, A
1591 FF               4880             mov     R7, A
1592 FF               4881             mov     R7, A
1593 FF               4882             mov     R7, A
1594 FF               4883             mov     R7, A
1595 FF               4884             mov     R7, A
1596 FF               4885             mov     R7, A
1597 FF               4886             mov     R7, A
1598 FF               4887             mov     R7, A
1599 FF               4888             mov     R7, A
159A FF               4889             mov     R7, A
159B FF               4890             mov     R7, A
159C FF               4891             mov     R7, A
159D FF               4892             mov     R7, A
159E FF               4893             mov     R7, A
159F FF               4894             mov     R7, A
15A0 FF               4895             mov     R7, A
15A1 FF               4896             mov     R7, A
15A2 FF               4897             mov     R7, A
15A3 FF               4898             mov     R7, A
15A4 FF               4899             mov     R7, A
15A5 FF               4900             mov     R7, A
15A6 FF               4901             mov     R7, A
15A7 FF               4902             mov     R7, A
15A8 FF               4903             mov     R7, A
15A9 FF               4904             mov     R7, A
15AA FF               4905             mov     R7, A
15AB FF               4906             mov     R7, A
15AC FF               4907             mov     R7, A
15AD FF               4908             mov     R7, A
15AE FF               4909             mov     R7, A
15AF FF               4910             mov     R7, A
15B0 FF               4911             mov     R7, A
15B1 FF               4912             mov     R7, A
15B2 FF               4913             mov     R7, A
15B3 FF               4914             mov     R7, A
15B4 FF               4915             mov     R7, A
15B5 FF               4916             mov     R7, A
15B6 FF               4917             mov     R7, A
15B7 FF               4918             mov     R7, A
15B8 FF               4919             mov     R7, A
15B9 FF               4920             mov     R7, A
15BA FF               4921             mov     R7, A
15BB FF               4922             mov     R7, A
15BC FF               4923             mov     R7, A
15BD FF               4924             mov     R7, A
15BE FF               4925             mov     R7, A
15BF FF               4926             mov     R7, A
15C0 FF               4927             mov     R7, A
15C1 FF               4928             mov     R7, A
15C2 FF               4929             mov     R7, A
15C3 FF               4930             mov     R7, A
15C4 FF               4931             mov     R7, A
15C5 FF               4932             mov     R7, A
15C6 FF               4933             mov     R7, A
15C7 FF               4934             mov     R7, A
15C8 FF               4935             mov     R7, A
15C9 FF               4936             mov     R7, A
15CA FF               4937             mov     R7, A
15CB FF               4938             mov     R7, A
15CC FF               4939             mov     R7, A
15CD FF               4940             mov     R7, A
15CE FF               4941             mov     R7, A
15CF FF               4942             mov     R7, A
15D0 FF               4943             mov     R7, A
15D1 FF               4944             mov     R7, A
15D2 FF               4945             mov     R7, A
15D3 FF               4946             mov     R7, A
15D4 FF               4947             mov     R7, A
15D5 FF               4948             mov     R7, A
15D6 FF               4949             mov     R7, A
15D7 FF               4950             mov     R7, A
15D8 FF               4951             mov     R7, A
15D9 FF               4952             mov     R7, A
15DA FF               4953             mov     R7, A
15DB FF               4954             mov     R7, A
15DC FF               4955             mov     R7, A
15DD FF               4956             mov     R7, A
15DE FF               4957             mov     R7, A
15DF FF               4958             mov     R7, A
15E0 FF               4959             mov     R7, A
15E1 FF               4960             mov     R7, A
15E2 FF               4961             mov     R7, A
15E3 FF               4962             mov     R7, A
15E4 FF               4963             mov     R7, A
15E5 FF               4964             mov     R7, A
15E6 FF               4965             mov     R7, A
15E7 FF               4966             mov     R7, A
15E8 FF               4967             mov     R7, A
15E9 FF               4968             mov     R7, A
15EA FF               4969             mov     R7, A
15EB FF               4970             mov     R7, A
15EC FF               4971             mov     R7, A
15ED FF               4972             mov     R7, A
15EE FF               4973             mov     R7, A
15EF FF               4974             mov     R7, A
15F0 FF               4975             mov     R7, A
15F1 FF               4976             mov     R7, A
15F2 FF               4977             mov     R7, A
15F3 FF               4978             mov     R7, A
15F4 FF               4979             mov     R7, A
15F5 FF               4980             mov     R7, A
15F6 FF               4981             mov     R7, A
15F7 FF               4982             mov     R7, A
15F8 FF               4983             mov     R7, A
15F9 FF               4984             mov     R7, A
15FA FF               4985             mov     R7, A
15FB FF               4986             mov     R7, A
15FC FF               4987             mov     R7, A
15FD FF               4988             mov     R7, A
15FE FF               4989             mov     R7, A
15FF FF               4990             mov     R7, A
1600 FF               4991             mov     R7, A
1601 FF               4992             mov     R7, A
1602 FF               4993             mov     R7, A
1603 FF               4994             mov     R7, A
1604 FF               4995             mov     R7, A
1605 FF               4996             mov     R7, A
1606 FF               4997             mov     R7, A
1607 FF               4998             mov     R7, A
1608 FF               4999             mov     R7, A
1609 FF               5000             mov     R7, A
160A FF               5001             mov     R7, A
160B FF               5002             mov     R7, A
160C FF               5003             mov     R7, A
160D FF               5004             mov     R7, A
160E FF               5005             mov     R7, A
160F FF               5006             mov     R7, A
1610 FF               5007             mov     R7, A
1611 FF               5008             mov     R7, A
1612 FF               5009             mov     R7, A
1613 FF               5010             mov     R7, A
1614 FF               5011             mov     R7, A
1615 FF               5012             mov     R7, A
1616 FF               5013             mov     R7, A
1617 FF               5014             mov     R7, A
1618 FF               5015             mov     R7, A
1619 FF               5016             mov     R7, A
161A FF               5017             mov     R7, A
161B FF               5018             mov     R7, A
161C FF               5019             mov     R7, A
161D FF               5020             mov     R7, A
161E FF               5021             mov     R7, A
161F FF               5022             mov     R7, A
1620 FF               5023             mov     R7, A
1621 FF               5024             mov     R7, A
1622 FF               5025             mov     R7, A
1623 FF               5026             mov     R7, A
1624 FF               5027             mov     R7, A
1625 FF               5028             mov     R7, A
1626 FF               5029             mov     R7, A
1627 FF               5030             mov     R7, A
1628 FF               5031             mov     R7, A
1629 FF               5032             mov     R7, A
162A FF               5033             mov     R7, A
162B FF               5034             mov     R7, A
162C FF               5035             mov     R7, A
162D FF               5036             mov     R7, A
162E FF               5037             mov     R7, A
162F FF               5038             mov     R7, A
1630 FF               5039             mov     R7, A
1631 FF               5040             mov     R7, A
1632 FF               5041             mov     R7, A
1633 FF               5042             mov     R7, A
1634 FF               5043             mov     R7, A
1635 FF               5044             mov     R7, A
1636 FF               5045             mov     R7, A
1637 FF               5046             mov     R7, A
1638 FF               5047             mov     R7, A
1639 FF               5048             mov     R7, A
163A FF               5049             mov     R7, A
163B FF               5050             mov     R7, A
163C FF               5051             mov     R7, A
163D FF               5052             mov     R7, A
163E FF               5053             mov     R7, A
163F FF               5054             mov     R7, A
1640 FF               5055             mov     R7, A
1641 FF               5056             mov     R7, A
1642 FF               5057             mov     R7, A
1643 FF               5058             mov     R7, A
1644 FF               5059             mov     R7, A
1645 FF               5060             mov     R7, A
1646 FF               5061             mov     R7, A
1647 FF               5062             mov     R7, A
1648 FF               5063             mov     R7, A
1649 FF               5064             mov     R7, A
164A FF               5065             mov     R7, A
164B FF               5066             mov     R7, A
164C FF               5067             mov     R7, A
164D FF               5068             mov     R7, A
164E FF               5069             mov     R7, A
164F FF               5070             mov     R7, A
1650 FF               5071             mov     R7, A
1651 FF               5072             mov     R7, A
1652 FF               5073             mov     R7, A
1653 FF               5074             mov     R7, A
1654 FF               5075             mov     R7, A
1655 FF               5076             mov     R7, A
1656 FF               5077             mov     R7, A
1657 FF               5078             mov     R7, A
1658 FF               5079             mov     R7, A
1659 FF               5080             mov     R7, A
165A FF               5081             mov     R7, A
165B FF               5082             mov     R7, A
165C FF               5083             mov     R7, A
165D FF               5084             mov     R7, A
165E FF               5085             mov     R7, A
165F FF               5086             mov     R7, A
1660 FF               5087             mov     R7, A
1661 FF               5088             mov     R7, A
1662 FF               5089             mov     R7, A
1663 FF               5090             mov     R7, A
1664 FF               5091             mov     R7, A
1665 FF               5092             mov     R7, A
1666 FF               5093             mov     R7, A
1667 FF               5094             mov     R7, A
1668 FF               5095             mov     R7, A
1669 FF               5096             mov     R7, A
166A FF               5097             mov     R7, A
166B FF               5098             mov     R7, A
166C FF               5099             mov     R7, A
166D FF               5100             mov     R7, A
166E FF               5101             mov     R7, A
166F FF               5102             mov     R7, A
1670 FF               5103             mov     R7, A
1671 FF               5104             mov     R7, A
1672 FF               5105             mov     R7, A
1673 FF               5106             mov     R7, A
1674 FF               5107             mov     R7, A
1675 FF               5108             mov     R7, A
1676 FF               5109             mov     R7, A
1677 FF               5110             mov     R7, A
1678 FF               5111             mov     R7, A
1679 FF               5112             mov     R7, A
167A FF               5113             mov     R7, A
167B FF               5114             mov     R7, A
167C FF               5115             mov     R7, A
167D FF               5116             mov     R7, A
167E FF               5117             mov     R7, A
167F FF               5118             mov     R7, A
1680 FF               5119             mov     R7, A
1681 FF               5120             mov     R7, A
1682 FF               5121             mov     R7, A
1683 FF               5122             mov     R7, A
1684 FF               5123             mov     R7, A
1685 FF               5124             mov     R7, A
1686 FF               5125             mov     R7, A
1687 FF               5126             mov     R7, A
1688 FF               5127             mov     R7, A
1689 FF               5128             mov     R7, A
168A FF               5129             mov     R7, A
168B FF               5130             mov     R7, A
168C FF               5131             mov     R7, A
168D FF               5132             mov     R7, A
168E FF               5133             mov     R7, A
168F FF               5134             mov     R7, A
1690 FF               5135             mov     R7, A
1691 FF               5136             mov     R7, A
1692 FF               5137             mov     R7, A
1693 FF               5138             mov     R7, A
1694 FF               5139             mov     R7, A
1695 FF               5140             mov     R7, A
1696 FF               5141             mov     R7, A
1697 FF               5142             mov     R7, A
1698 FF               5143             mov     R7, A
1699 FF               5144             mov     R7, A
169A FF               5145             mov     R7, A
169B FF               5146             mov     R7, A
169C FF               5147             mov     R7, A
169D FF               5148             mov     R7, A
169E FF               5149             mov     R7, A
169F FF               5150             mov     R7, A
16A0 FF               5151             mov     R7, A
16A1 FF               5152             mov     R7, A
16A2 FF               5153             mov     R7, A
16A3 FF               5154             mov     R7, A
16A4 FF               5155             mov     R7, A
16A5 FF               5156             mov     R7, A
16A6 FF               5157             mov     R7, A
16A7 FF               5158             mov     R7, A
16A8 FF               5159             mov     R7, A
16A9 FF               5160             mov     R7, A
16AA FF               5161             mov     R7, A
16AB FF               5162             mov     R7, A
16AC FF               5163             mov     R7, A
16AD FF               5164             mov     R7, A
16AE FF               5165             mov     R7, A
16AF FF               5166             mov     R7, A
16B0 FF               5167             mov     R7, A
16B1 FF               5168             mov     R7, A
16B2 FF               5169             mov     R7, A
16B3 FF               5170             mov     R7, A
16B4 FF               5171             mov     R7, A
16B5 FF               5172             mov     R7, A
16B6 FF               5173             mov     R7, A
16B7 FF               5174             mov     R7, A
16B8 FF               5175             mov     R7, A
16B9 FF               5176             mov     R7, A
16BA FF               5177             mov     R7, A
16BB FF               5178             mov     R7, A
16BC FF               5179             mov     R7, A
16BD FF               5180             mov     R7, A
16BE FF               5181             mov     R7, A
16BF FF               5182             mov     R7, A
16C0 FF               5183             mov     R7, A
16C1 FF               5184             mov     R7, A
16C2 FF               5185             mov     R7, A
16C3 FF               5186             mov     R7, A
16C4 FF               5187             mov     R7, A
16C5 FF               5188             mov     R7, A
16C6 FF               5189             mov     R7, A
16C7 FF               5190             mov     R7, A
16C8 FF               5191             mov     R7, A
16C9 FF               5192             mov     R7, A
16CA FF               5193             mov     R7, A
16CB FF               5194             mov     R7, A
16CC FF               5195             mov     R7, A
16CD FF               5196             mov     R7, A
16CE FF               5197             mov     R7, A
16CF FF               5198             mov     R7, A
16D0 FF               5199             mov     R7, A
16D1 FF               5200             mov     R7, A
16D2 FF               5201             mov     R7, A
16D3 FF               5202             mov     R7, A
16D4 FF               5203             mov     R7, A
16D5 FF               5204             mov     R7, A
16D6 FF               5205             mov     R7, A
16D7 FF               5206             mov     R7, A
16D8 FF               5207             mov     R7, A
16D9 FF               5208             mov     R7, A
16DA FF               5209             mov     R7, A
16DB FF               5210             mov     R7, A
16DC FF               5211             mov     R7, A
16DD FF               5212             mov     R7, A
16DE FF               5213             mov     R7, A
16DF FF               5214             mov     R7, A
16E0 FF               5215             mov     R7, A
16E1 FF               5216             mov     R7, A
16E2 FF               5217             mov     R7, A
16E3 FF               5218             mov     R7, A
16E4 FF               5219             mov     R7, A
16E5 FF               5220             mov     R7, A
16E6 FF               5221             mov     R7, A
16E7 FF               5222             mov     R7, A
16E8 FF               5223             mov     R7, A
16E9 FF               5224             mov     R7, A
16EA FF               5225             mov     R7, A
16EB FF               5226             mov     R7, A
16EC FF               5227             mov     R7, A
16ED FF               5228             mov     R7, A
16EE FF               5229             mov     R7, A
16EF FF               5230             mov     R7, A
16F0 FF               5231             mov     R7, A
16F1 FF               5232             mov     R7, A
16F2 FF               5233             mov     R7, A
16F3 FF               5234             mov     R7, A
16F4 FF               5235             mov     R7, A
16F5 FF               5236             mov     R7, A
16F6 FF               5237             mov     R7, A
16F7 FF               5238             mov     R7, A
16F8 FF               5239             mov     R7, A
16F9 FF               5240             mov     R7, A
16FA FF               5241             mov     R7, A
16FB FF               5242             mov     R7, A
16FC FF               5243             mov     R7, A
16FD FF               5244             mov     R7, A
16FE FF               5245             mov     R7, A
16FF FF               5246             mov     R7, A
1700 FF               5247             mov     R7, A
1701 FF               5248             mov     R7, A
1702 FF               5249             mov     R7, A
1703 FF               5250             mov     R7, A
1704 FF               5251             mov     R7, A
1705 FF               5252             mov     R7, A
1706 FF               5253             mov     R7, A
1707 FF               5254             mov     R7, A
1708 FF               5255             mov     R7, A
1709 FF               5256             mov     R7, A
170A FF               5257             mov     R7, A
170B FF               5258             mov     R7, A
170C FF               5259             mov     R7, A
170D FF               5260             mov     R7, A
170E FF               5261             mov     R7, A
170F FF               5262             mov     R7, A
1710 FF               5263             mov     R7, A
1711 FF               5264             mov     R7, A
1712 FF               5265             mov     R7, A
1713 FF               5266             mov     R7, A
1714 FF               5267             mov     R7, A
1715 FF               5268             mov     R7, A
1716 FF               5269             mov     R7, A
1717 FF               5270             mov     R7, A
1718 FF               5271             mov     R7, A
1719 FF               5272             mov     R7, A
171A FF               5273             mov     R7, A
171B FF               5274             mov     R7, A
171C FF               5275             mov     R7, A
171D FF               5276             mov     R7, A
171E FF               5277             mov     R7, A
171F FF               5278             mov     R7, A
1720 FF               5279             mov     R7, A
1721 FF               5280             mov     R7, A
1722 FF               5281             mov     R7, A
1723 FF               5282             mov     R7, A
1724 FF               5283             mov     R7, A
1725 FF               5284             mov     R7, A
1726 FF               5285             mov     R7, A
1727 FF               5286             mov     R7, A
1728 FF               5287             mov     R7, A
1729 FF               5288             mov     R7, A
172A FF               5289             mov     R7, A
172B FF               5290             mov     R7, A
172C FF               5291             mov     R7, A
172D FF               5292             mov     R7, A
172E FF               5293             mov     R7, A
172F FF               5294             mov     R7, A
1730 FF               5295             mov     R7, A
1731 FF               5296             mov     R7, A
1732 FF               5297             mov     R7, A
1733 FF               5298             mov     R7, A
1734 FF               5299             mov     R7, A
1735 FF               5300             mov     R7, A
1736 FF               5301             mov     R7, A
1737 FF               5302             mov     R7, A
1738 FF               5303             mov     R7, A
1739 FF               5304             mov     R7, A
173A FF               5305             mov     R7, A
173B FF               5306             mov     R7, A
173C FF               5307             mov     R7, A
173D FF               5308             mov     R7, A
173E FF               5309             mov     R7, A
173F FF               5310             mov     R7, A
1740 FF               5311             mov     R7, A
1741 FF               5312             mov     R7, A
1742 FF               5313             mov     R7, A
1743 FF               5314             mov     R7, A
1744 FF               5315             mov     R7, A
1745 FF               5316             mov     R7, A
1746 FF               5317             mov     R7, A
1747 FF               5318             mov     R7, A
1748 FF               5319             mov     R7, A
1749 FF               5320             mov     R7, A
174A FF               5321             mov     R7, A
174B FF               5322             mov     R7, A
174C FF               5323             mov     R7, A
174D FF               5324             mov     R7, A
174E FF               5325             mov     R7, A
174F FF               5326             mov     R7, A
1750 FF               5327             mov     R7, A
1751 FF               5328             mov     R7, A
1752 FF               5329             mov     R7, A
1753 FF               5330             mov     R7, A
1754 FF               5331             mov     R7, A
1755 FF               5332             mov     R7, A
1756 FF               5333             mov     R7, A
1757 FF               5334             mov     R7, A
1758 FF               5335             mov     R7, A
1759 FF               5336             mov     R7, A
175A FF               5337             mov     R7, A
175B FF               5338             mov     R7, A
175C FF               5339             mov     R7, A
175D FF               5340             mov     R7, A
175E FF               5341             mov     R7, A
175F FF               5342             mov     R7, A
1760 FF               5343             mov     R7, A
1761 FF               5344             mov     R7, A
1762 FF               5345             mov     R7, A
1763 FF               5346             mov     R7, A
1764 FF               5347             mov     R7, A
1765 FF               5348             mov     R7, A
1766 FF               5349             mov     R7, A
1767 FF               5350             mov     R7, A
1768 FF               5351             mov     R7, A
1769 FF               5352             mov     R7, A
176A FF               5353             mov     R7, A
176B FF               5354             mov     R7, A
176C FF               5355             mov     R7, A
176D FF               5356             mov     R7, A
176E FF               5357             mov     R7, A
176F FF               5358             mov     R7, A
1770 FF               5359             mov     R7, A
1771 FF               5360             mov     R7, A
1772 FF               5361             mov     R7, A
1773 FF               5362             mov     R7, A
1774 FF               5363             mov     R7, A
1775 FF               5364             mov     R7, A
1776 FF               5365             mov     R7, A
1777 FF               5366             mov     R7, A
1778 FF               5367             mov     R7, A
1779 FF               5368             mov     R7, A
177A FF               5369             mov     R7, A
177B FF               5370             mov     R7, A
177C FF               5371             mov     R7, A
177D FF               5372             mov     R7, A
177E FF               5373             mov     R7, A
177F FF               5374             mov     R7, A
1780 FF               5375             mov     R7, A
1781 FF               5376             mov     R7, A
1782 FF               5377             mov     R7, A
1783 FF               5378             mov     R7, A
1784 FF               5379             mov     R7, A
1785 FF               5380             mov     R7, A
1786 FF               5381             mov     R7, A
1787 FF               5382             mov     R7, A
1788 FF               5383             mov     R7, A
1789 FF               5384             mov     R7, A
178A FF               5385             mov     R7, A
178B FF               5386             mov     R7, A
178C FF               5387             mov     R7, A
178D FF               5388             mov     R7, A
178E FF               5389             mov     R7, A
178F FF               5390             mov     R7, A
1790 FF               5391             mov     R7, A
1791 FF               5392             mov     R7, A
1792 FF               5393             mov     R7, A
1793 FF               5394             mov     R7, A
1794 FF               5395             mov     R7, A
1795 FF               5396             mov     R7, A
1796 FF               5397             mov     R7, A
1797 FF               5398             mov     R7, A
1798 FF               5399             mov     R7, A
1799 FF               5400             mov     R7, A
179A FF               5401             mov     R7, A
179B FF               5402             mov     R7, A
179C FF               5403             mov     R7, A
179D FF               5404             mov     R7, A
179E FF               5405             mov     R7, A
179F FF               5406             mov     R7, A
17A0 FF               5407             mov     R7, A
17A1 FF               5408             mov     R7, A
17A2 FF               5409             mov     R7, A
17A3 FF               5410             mov     R7, A
17A4 FF               5411             mov     R7, A
17A5 FF               5412             mov     R7, A
17A6 FF               5413             mov     R7, A
17A7 FF               5414             mov     R7, A
17A8 FF               5415             mov     R7, A
17A9 FF               5416             mov     R7, A
17AA FF               5417             mov     R7, A
17AB FF               5418             mov     R7, A
17AC FF               5419             mov     R7, A
17AD FF               5420             mov     R7, A
17AE FF               5421             mov     R7, A
17AF FF               5422             mov     R7, A
17B0 FF               5423             mov     R7, A
17B1 FF               5424             mov     R7, A
17B2 FF               5425             mov     R7, A
17B3 FF               5426             mov     R7, A
17B4 FF               5427             mov     R7, A
17B5 FF               5428             mov     R7, A
17B6 FF               5429             mov     R7, A
17B7 FF               5430             mov     R7, A
17B8 FF               5431             mov     R7, A
17B9 FF               5432             mov     R7, A
17BA FF               5433             mov     R7, A
17BB FF               5434             mov     R7, A
17BC FF               5435             mov     R7, A
17BD FF               5436             mov     R7, A
17BE FF               5437             mov     R7, A
17BF FF               5438             mov     R7, A
17C0 FF               5439             mov     R7, A
17C1 FF               5440             mov     R7, A
17C2 FF               5441             mov     R7, A
17C3 FF               5442             mov     R7, A
17C4 FF               5443             mov     R7, A
17C5 FF               5444             mov     R7, A
17C6 FF               5445             mov     R7, A
17C7 FF               5446             mov     R7, A
17C8 FF               5447             mov     R7, A
17C9 FF               5448             mov     R7, A
17CA FF               5449             mov     R7, A
17CB FF               5450             mov     R7, A
17CC FF               5451             mov     R7, A
17CD FF               5452             mov     R7, A
17CE FF               5453             mov     R7, A
17CF FF               5454             mov     R7, A
17D0 FF               5455             mov     R7, A
17D1 FF               5456             mov     R7, A
17D2 FF               5457             mov     R7, A
17D3 FF               5458             mov     R7, A
17D4 FF               5459             mov     R7, A
17D5 FF               5460             mov     R7, A
17D6 FF               5461             mov     R7, A
17D7 FF               5462             mov     R7, A
17D8 FF               5463             mov     R7, A
17D9 FF               5464             mov     R7, A
17DA FF               5465             mov     R7, A
17DB FF               5466             mov     R7, A
17DC FF               5467             mov     R7, A
17DD FF               5468             mov     R7, A
17DE FF               5469             mov     R7, A
17DF FF               5470             mov     R7, A
17E0 FF               5471             mov     R7, A
17E1 FF               5472             mov     R7, A
17E2 FF               5473             mov     R7, A
17E3 FF               5474             mov     R7, A
17E4 FF               5475             mov     R7, A
17E5 FF               5476             mov     R7, A
17E6 FF               5477             mov     R7, A
17E7 FF               5478             mov     R7, A
17E8 FF               5479             mov     R7, A
17E9 FF               5480             mov     R7, A
17EA FF               5481             mov     R7, A
17EB FF               5482             mov     R7, A
17EC FF               5483             mov     R7, A
17ED FF               5484             mov     R7, A
17EE FF               5485             mov     R7, A
17EF FF               5486             mov     R7, A
17F0 FF               5487             mov     R7, A
17F1 FF               5488             mov     R7, A
17F2 FF               5489             mov     R7, A
17F3 FF               5490             mov     R7, A
17F4 FF               5491             mov     R7, A
17F5 FF               5492             mov     R7, A
17F6 FF               5493             mov     R7, A
17F7 FF               5494             mov     R7, A
17F8 FF               5495             mov     R7, A
17F9 FF               5496             mov     R7, A
17FA FF               5497             mov     R7, A
17FB FF               5498             mov     R7, A
17FC FF               5499             mov     R7, A
17FD FF               5500             mov     R7, A
17FE FF               5501             mov     R7, A
17FF FF               5502             mov     R7, A
1800 FF               5503             mov     R7, A
1801 FF               5504             mov     R7, A
1802 FF               5505             mov     R7, A
1803 FF               5506             mov     R7, A
1804 FF               5507             mov     R7, A
1805 FF               5508             mov     R7, A
1806 FF               5509             mov     R7, A
1807 FF               5510             mov     R7, A
1808 FF               5511             mov     R7, A
1809 FF               5512             mov     R7, A
180A FF               5513             mov     R7, A
180B FF               5514             mov     R7, A
180C FF               5515             mov     R7, A
180D FF               5516             mov     R7, A
180E FF               5517             mov     R7, A
180F FF               5518             mov     R7, A
1810 FF               5519             mov     R7, A
1811 FF               5520             mov     R7, A
1812 FF               5521             mov     R7, A
1813 FF               5522             mov     R7, A
1814 FF               5523             mov     R7, A
1815 FF               5524             mov     R7, A
1816 FF               5525             mov     R7, A
1817 FF               5526             mov     R7, A
1818 FF               5527             mov     R7, A
1819 FF               5528             mov     R7, A
181A FF               5529             mov     R7, A
181B FF               5530             mov     R7, A
181C FF               5531             mov     R7, A
181D FF               5532             mov     R7, A
181E FF               5533             mov     R7, A
181F FF               5534             mov     R7, A
1820 FF               5535             mov     R7, A
1821 FF               5536             mov     R7, A
1822 FF               5537             mov     R7, A
1823 FF               5538             mov     R7, A
1824 FF               5539             mov     R7, A
1825 FF               5540             mov     R7, A
1826 FF               5541             mov     R7, A
1827 FF               5542             mov     R7, A
1828 FF               5543             mov     R7, A
1829 FF               5544             mov     R7, A
182A FF               5545             mov     R7, A
182B FF               5546             mov     R7, A
182C FF               5547             mov     R7, A
182D FF               5548             mov     R7, A
182E FF               5549             mov     R7, A
182F FF               5550             mov     R7, A
1830 FF               5551             mov     R7, A
1831 FF               5552             mov     R7, A
1832 FF               5553             mov     R7, A
1833 FF               5554             mov     R7, A
1834 FF               5555             mov     R7, A
1835 FF               5556             mov     R7, A
1836 FF               5557             mov     R7, A
1837 FF               5558             mov     R7, A
1838 FF               5559             mov     R7, A
1839 FF               5560             mov     R7, A
183A FF               5561             mov     R7, A
183B FF               5562             mov     R7, A
183C FF               5563             mov     R7, A
183D FF               5564             mov     R7, A
183E FF               5565             mov     R7, A
183F FF               5566             mov     R7, A
1840 FF               5567             mov     R7, A
1841 FF               5568             mov     R7, A
1842 FF               5569             mov     R7, A
1843 FF               5570             mov     R7, A
1844 FF               5571             mov     R7, A
1845 FF               5572             mov     R7, A
1846 FF               5573             mov     R7, A
1847 FF               5574             mov     R7, A
1848 FF               5575             mov     R7, A
1849 FF               5576             mov     R7, A
184A FF               5577             mov     R7, A
184B FF               5578             mov     R7, A
184C FF               5579             mov     R7, A
184D FF               5580             mov     R7, A
184E FF               5581             mov     R7, A
184F FF               5582             mov     R7, A
1850 FF               5583             mov     R7, A
1851 FF               5584             mov     R7, A
1852 FF               5585             mov     R7, A
1853 FF               5586             mov     R7, A
1854 FF               5587             mov     R7, A
1855 FF               5588             mov     R7, A
1856 FF               5589             mov     R7, A
1857 FF               5590             mov     R7, A
1858 FF               5591             mov     R7, A
1859 FF               5592             mov     R7, A
185A FF               5593             mov     R7, A
185B FF               5594             mov     R7, A
185C FF               5595             mov     R7, A
185D FF               5596             mov     R7, A
185E FF               5597             mov     R7, A
185F FF               5598             mov     R7, A
1860 FF               5599             mov     R7, A
1861 FF               5600             mov     R7, A
1862 FF               5601             mov     R7, A
1863 FF               5602             mov     R7, A
1864 FF               5603             mov     R7, A
1865 FF               5604             mov     R7, A
1866 FF               5605             mov     R7, A
1867 FF               5606             mov     R7, A
1868 FF               5607             mov     R7, A
1869 FF               5608             mov     R7, A
186A FF               5609             mov     R7, A
186B FF               5610             mov     R7, A
186C FF               5611             mov     R7, A
186D FF               5612             mov     R7, A
186E FF               5613             mov     R7, A
186F FF               5614             mov     R7, A
1870 FF               5615             mov     R7, A
1871 FF               5616             mov     R7, A
1872 FF               5617             mov     R7, A
1873 FF               5618             mov     R7, A
1874 FF               5619             mov     R7, A
1875 FF               5620             mov     R7, A
1876 FF               5621             mov     R7, A
1877 FF               5622             mov     R7, A
1878 FF               5623             mov     R7, A
1879 FF               5624             mov     R7, A
187A FF               5625             mov     R7, A
187B FF               5626             mov     R7, A
187C FF               5627             mov     R7, A
187D FF               5628             mov     R7, A
187E FF               5629             mov     R7, A
187F FF               5630             mov     R7, A
1880 FF               5631             mov     R7, A
1881 FF               5632             mov     R7, A
1882 FF               5633             mov     R7, A
1883 FF               5634             mov     R7, A
1884 FF               5635             mov     R7, A
1885 FF               5636             mov     R7, A
1886 FF               5637             mov     R7, A
1887 FF               5638             mov     R7, A
1888 FF               5639             mov     R7, A
1889 FF               5640             mov     R7, A
188A FF               5641             mov     R7, A
188B FF               5642             mov     R7, A
188C FF               5643             mov     R7, A
188D FF               5644             mov     R7, A
188E FF               5645             mov     R7, A
188F FF               5646             mov     R7, A
1890 FF               5647             mov     R7, A
1891 FF               5648             mov     R7, A
1892 FF               5649             mov     R7, A
1893 FF               5650             mov     R7, A
1894 FF               5651             mov     R7, A
1895 FF               5652             mov     R7, A
1896 FF               5653             mov     R7, A
1897 FF               5654             mov     R7, A
1898 FF               5655             mov     R7, A
1899 FF               5656             mov     R7, A
189A FF               5657             mov     R7, A
189B FF               5658             mov     R7, A
189C FF               5659             mov     R7, A
189D FF               5660             mov     R7, A
189E FF               5661             mov     R7, A
189F FF               5662             mov     R7, A
18A0 FF               5663             mov     R7, A
18A1 FF               5664             mov     R7, A
18A2 FF               5665             mov     R7, A
18A3 FF               5666             mov     R7, A
18A4 FF               5667             mov     R7, A
18A5 FF               5668             mov     R7, A
18A6 FF               5669             mov     R7, A
18A7 FF               5670             mov     R7, A
18A8 FF               5671             mov     R7, A
18A9 FF               5672             mov     R7, A
18AA FF               5673             mov     R7, A
18AB FF               5674             mov     R7, A
18AC FF               5675             mov     R7, A
18AD FF               5676             mov     R7, A
18AE FF               5677             mov     R7, A
18AF FF               5678             mov     R7, A
18B0 FF               5679             mov     R7, A
18B1 FF               5680             mov     R7, A
18B2 FF               5681             mov     R7, A
18B3 FF               5682             mov     R7, A
18B4 FF               5683             mov     R7, A
18B5 FF               5684             mov     R7, A
18B6 FF               5685             mov     R7, A
18B7 FF               5686             mov     R7, A
18B8 FF               5687             mov     R7, A
18B9 FF               5688             mov     R7, A
18BA FF               5689             mov     R7, A
18BB FF               5690             mov     R7, A
18BC FF               5691             mov     R7, A
18BD FF               5692             mov     R7, A
18BE FF               5693             mov     R7, A
18BF FF               5694             mov     R7, A
18C0 FF               5695             mov     R7, A
18C1 FF               5696             mov     R7, A
18C2 FF               5697             mov     R7, A
18C3 FF               5698             mov     R7, A
18C4 FF               5699             mov     R7, A
18C5 FF               5700             mov     R7, A
18C6 FF               5701             mov     R7, A
18C7 FF               5702             mov     R7, A
18C8 FF               5703             mov     R7, A
18C9 FF               5704             mov     R7, A
18CA FF               5705             mov     R7, A
18CB FF               5706             mov     R7, A
18CC FF               5707             mov     R7, A
18CD FF               5708             mov     R7, A
18CE FF               5709             mov     R7, A
18CF FF               5710             mov     R7, A
18D0 FF               5711             mov     R7, A
18D1 FF               5712             mov     R7, A
18D2 FF               5713             mov     R7, A
18D3 FF               5714             mov     R7, A
18D4 FF               5715             mov     R7, A
18D5 FF               5716             mov     R7, A
18D6 FF               5717             mov     R7, A
18D7 FF               5718             mov     R7, A
18D8 FF               5719             mov     R7, A
18D9 FF               5720             mov     R7, A
18DA FF               5721             mov     R7, A
18DB FF               5722             mov     R7, A
18DC FF               5723             mov     R7, A
18DD FF               5724             mov     R7, A
18DE FF               5725             mov     R7, A
18DF FF               5726             mov     R7, A
18E0 FF               5727             mov     R7, A
18E1 FF               5728             mov     R7, A
18E2 FF               5729             mov     R7, A
18E3 FF               5730             mov     R7, A
18E4 FF               5731             mov     R7, A
18E5 FF               5732             mov     R7, A
18E6 FF               5733             mov     R7, A
18E7 FF               5734             mov     R7, A
18E8 FF               5735             mov     R7, A
18E9 FF               5736             mov     R7, A
18EA FF               5737             mov     R7, A
18EB FF               5738             mov     R7, A
18EC FF               5739             mov     R7, A
18ED FF               5740             mov     R7, A
18EE FF               5741             mov     R7, A
18EF FF               5742             mov     R7, A
18F0 FF               5743             mov     R7, A
18F1 FF               5744             mov     R7, A
18F2 FF               5745             mov     R7, A
18F3 FF               5746             mov     R7, A
18F4 FF               5747             mov     R7, A
18F5 FF               5748             mov     R7, A
18F6 FF               5749             mov     R7, A
18F7 FF               5750             mov     R7, A
18F8 FF               5751             mov     R7, A
18F9 FF               5752             mov     R7, A
18FA FF               5753             mov     R7, A
18FB FF               5754             mov     R7, A
18FC FF               5755             mov     R7, A
18FD FF               5756             mov     R7, A
18FE FF               5757             mov     R7, A
18FF FF               5758             mov     R7, A
1900 FF               5759             mov     R7, A
1901 FF               5760             mov     R7, A
1902 FF               5761             mov     R7, A
1903 FF               5762             mov     R7, A
1904 FF               5763             mov     R7, A
1905 FF               5764             mov     R7, A
1906 FF               5765             mov     R7, A
1907 FF               5766             mov     R7, A
1908 FF               5767             mov     R7, A
1909 FF               5768             mov     R7, A
                      5769     label58:
190A FF               5770             mov     R7, A
190B FF               5771             mov     R7, A
190C FF               5772             mov     R7, A
190D FF               5773             mov     R7, A
190E FF               5774             mov     R7, A
190F FF               5775             mov     R7, A
1910 FF               5776             mov     R7, A
1911 FF               5777             mov     R7, A
1912 FF               5778             mov     R7, A
1913 FF               5779             mov     R7, A
1914 FF               5780             mov     R7, A
1915 FF               5781             mov     R7, A
1916 FF               5782             mov     R7, A
1917 FF               5783             mov     R7, A
1918 FF               5784             mov     R7, A
1919 FF               5785             mov     R7, A
191A FF               5786             mov     R7, A
191B FF               5787             mov     R7, A
191C FF               5788             mov     R7, A
191D FF               5789             mov     R7, A
191E FF               5790             mov     R7, A
191F FF               5791             mov     R7, A
1920 FF               5792             mov     R7, A
1921 FF               5793             mov     R7, A
1922 FF               5794             mov     R7, A
1923 FF               5795             mov     R7, A
1924 FF               5796             mov     R7, A
1925 FF               5797             mov     R7, A
1926 FF               5798             mov     R7, A
1927 FF               5799             mov     R7, A
1928 FF               5800             mov     R7, A
1929 FF               5801             mov     R7, A
192A FF               5802             mov     R7, A
192B FF               5803             mov     R7, A
192C FF               5804             mov     R7, A
192D FF               5805             mov     R7, A
192E FF               5806             mov     R7, A
192F FF               5807             mov     R7, A
1930 FF               5808             mov     R7, A
1931 FF               5809             mov     R7, A
1932 FF               5810             mov     R7, A
1933 FF               5811             mov     R7, A
1934 FF               5812             mov     R7, A
1935 FF               5813             mov     R7, A
1936 FF               5814             mov     R7, A
1937 FF               5815             mov     R7, A
1938 FF               5816             mov     R7, A
1939 FF               5817             mov     R7, A
193A FF               5818             mov     R7, A
193B FF               5819             mov     R7, A
193C FF               5820             mov     R7, A
193D FF               5821             mov     R7, A
193E FF               5822             mov     R7, A
193F FF               5823             mov     R7, A
1940 FF               5824             mov     R7, A
1941 FF               5825             mov     R7, A
1942 FF               5826             mov     R7, A
1943 FF               5827             mov     R7, A
1944 FF               5828             mov     R7, A
1945 FF               5829             mov     R7, A
1946 FF               5830             mov     R7, A
1947 FF               5831             mov     R7, A
1948 FF               5832             mov     R7, A
1949 FF               5833             mov     R7, A
194A FF               5834             mov     R7, A
194B FF               5835             mov     R7, A
194C FF               5836             mov     R7, A
194D FF               5837             mov     R7, A
194E FF               5838             mov     R7, A
194F FF               5839             mov     R7, A
1950 FF               5840             mov     R7, A
1951 FF               5841             mov     R7, A
1952 FF               5842             mov     R7, A
1953 FF               5843             mov     R7, A
1954 FF               5844             mov     R7, A
1955 FF               5845             mov     R7, A
1956 FF               5846             mov     R7, A
1957 FF               5847             mov     R7, A
1958 FF               5848             mov     R7, A
1959 FF               5849             mov     R7, A
195A FF               5850             mov     R7, A
195B FF               5851             mov     R7, A
195C FF               5852             mov     R7, A
195D FF               5853             mov     R7, A
195E FF               5854             mov     R7, A
195F FF               5855             mov     R7, A
1960 FF               5856             mov     R7, A
1961 FF               5857             mov     R7, A
1962 FF               5858             mov     R7, A
1963 FF               5859             mov     R7, A
1964 FF               5860             mov     R7, A
1965 FF               5861             mov     R7, A
1966 FF               5862             mov     R7, A
1967 FF               5863             mov     R7, A
1968 FF               5864             mov     R7, A
1969 FF               5865             mov     R7, A
196A FF               5866             mov     R7, A
196B FF               5867             mov     R7, A
196C FF               5868             mov     R7, A
196D FF               5869             mov     R7, A
196E FF               5870             mov     R7, A
196F FF               5871             mov     R7, A
1970 FF               5872             mov     R7, A
1971 FF               5873             mov     R7, A
1972 FF               5874             mov     R7, A
1973 FF               5875             mov     R7, A
1974 FF               5876             mov     R7, A
1975 FF               5877             mov     R7, A
1976 FF               5878             mov     R7, A
1977 FF               5879             mov     R7, A
1978 FF               5880             mov     R7, A
1979 FF               5881             mov     R7, A
197A FF               5882             mov     R7, A
197B FF               5883             mov     R7, A
197C FF               5884             mov     R7, A
197D FF               5885             mov     R7, A
197E FF               5886             mov     R7, A
197F FF               5887             mov     R7, A
1980 FF               5888             mov     R7, A
1981 FF               5889             mov     R7, A
1982 FF               5890             mov     R7, A
1983 FF               5891             mov     R7, A
1984 FF               5892             mov     R7, A
1985 FF               5893             mov     R7, A
1986 FF               5894             mov     R7, A
1987 FF               5895             mov     R7, A
1988 FF               5896             mov     R7, A
1989 FF               5897             mov     R7, A
198A FF               5898             mov     R7, A
198B FF               5899             mov     R7, A
198C FF               5900             mov     R7, A
198D FF               5901             mov     R7, A
198E FF               5902             mov     R7, A
198F FF               5903             mov     R7, A
1990 FF               5904             mov     R7, A
1991 FF               5905             mov     R7, A
1992 FF               5906             mov     R7, A
1993 FF               5907             mov     R7, A
1994 FF               5908             mov     R7, A
1995 FF               5909             mov     R7, A
1996 FF               5910             mov     R7, A
1997 FF               5911             mov     R7, A
1998 FF               5912             mov     R7, A
1999 FF               5913             mov     R7, A
199A FF               5914             mov     R7, A
199B FF               5915             mov     R7, A
199C FF               5916             mov     R7, A
199D FF               5917             mov     R7, A
199E FF               5918             mov     R7, A
199F FF               5919             mov     R7, A
19A0 FF               5920             mov     R7, A
19A1 FF               5921             mov     R7, A
19A2 FF               5922             mov     R7, A
19A3 FF               5923             mov     R7, A
19A4 FF               5924             mov     R7, A
19A5 FF               5925             mov     R7, A
19A6 FF               5926             mov     R7, A
19A7 FF               5927             mov     R7, A
19A8 FF               5928             mov     R7, A
19A9 FF               5929             mov     R7, A
19AA FF               5930             mov     R7, A
19AB FF               5931             mov     R7, A
19AC FF               5932             mov     R7, A
19AD FF               5933             mov     R7, A
19AE FF               5934             mov     R7, A
19AF FF               5935             mov     R7, A
19B0 FF               5936             mov     R7, A
19B1 FF               5937             mov     R7, A
19B2 FF               5938             mov     R7, A
19B3 FF               5939             mov     R7, A
19B4 FF               5940             mov     R7, A
19B5 FF               5941             mov     R7, A
19B6 FF               5942             mov     R7, A
19B7 FF               5943             mov     R7, A
19B8 FF               5944             mov     R7, A
19B9 FF               5945             mov     R7, A
19BA FF               5946             mov     R7, A
19BB FF               5947             mov     R7, A
19BC FF               5948             mov     R7, A
19BD FF               5949             mov     R7, A
19BE FF               5950             mov     R7, A
19BF FF               5951             mov     R7, A
19C0 FF               5952             mov     R7, A
19C1 FF               5953             mov     R7, A
19C2 FF               5954             mov     R7, A
19C3 FF               5955             mov     R7, A
19C4 FF               5956             mov     R7, A
19C5 FF               5957             mov     R7, A
19C6 FF               5958             mov     R7, A
19C7 FF               5959             mov     R7, A
19C8 FF               5960             mov     R7, A
19C9 FF               5961             mov     R7, A
19CA FF               5962             mov     R7, A
19CB FF               5963             mov     R7, A
19CC FF               5964             mov     R7, A
19CD FF               5965             mov     R7, A
19CE FF               5966             mov     R7, A
19CF FF               5967             mov     R7, A
19D0 FF               5968             mov     R7, A
19D1 FF               5969             mov     R7, A
19D2 FF               5970             mov     R7, A
19D3 FF               5971             mov     R7, A
19D4 FF               5972             mov     R7, A
19D5 FF               5973             mov     R7, A
19D6 FF               5974             mov     R7, A
19D7 FF               5975             mov     R7, A
19D8 FF               5976             mov     R7, A
19D9 FF               5977             mov     R7, A
19DA FF               5978             mov     R7, A
19DB FF               5979             mov     R7, A
19DC FF               5980             mov     R7, A
19DD FF               5981             mov     R7, A
19DE FF               5982             mov     R7, A
19DF FF               5983             mov     R7, A
19E0 FF               5984             mov     R7, A
19E1 FF               5985             mov     R7, A
19E2 FF               5986             mov     R7, A
19E3 FF               5987             mov     R7, A
19E4 FF               5988             mov     R7, A
19E5 FF               5989             mov     R7, A
19E6 FF               5990             mov     R7, A
19E7 FF               5991             mov     R7, A
19E8 FF               5992             mov     R7, A
19E9 FF               5993             mov     R7, A
19EA FF               5994             mov     R7, A
19EB FF               5995             mov     R7, A
19EC FF               5996             mov     R7, A
19ED FF               5997             mov     R7, A
19EE FF               5998             mov     R7, A
19EF FF               5999             mov     R7, A
19F0 FF               6000             mov     R7, A
19F1 FF               6001             mov     R7, A
19F2 FF               6002             mov     R7, A
19F3 FF               6003             mov     R7, A
19F4 FF               6004             mov     R7, A
19F5 FF               6005             mov     R7, A
19F6 FF               6006             mov     R7, A
19F7 FF               6007             mov     R7, A
19F8 FF               6008             mov     R7, A
19F9 FF               6009             mov     R7, A
19FA FF               6010             mov     R7, A
19FB FF               6011             mov     R7, A
19FC FF               6012             mov     R7, A
19FD FF               6013             mov     R7, A
19FE FF               6014             mov     R7, A
19FF FF               6015             mov     R7, A
1A00 FF               6016             mov     R7, A
1A01 FF               6017             mov     R7, A
1A02 FF               6018             mov     R7, A
1A03 FF               6019             mov     R7, A
1A04 FF               6020             mov     R7, A
1A05 FF               6021             mov     R7, A
1A06 FF               6022             mov     R7, A
1A07 FF               6023             mov     R7, A
1A08 FF               6024             mov     R7, A
1A09 FF               6025             mov     R7, A
1A0A FF               6026             mov     R7, A
1A0B FF               6027             mov     R7, A
1A0C FF               6028             mov     R7, A
1A0D FF               6029             mov     R7, A
1A0E FF               6030             mov     R7, A
1A0F FF               6031             mov     R7, A
1A10 FF               6032             mov     R7, A
1A11 FF               6033             mov     R7, A
1A12 FF               6034             mov     R7, A
1A13 FF               6035             mov     R7, A
1A14 FF               6036             mov     R7, A
1A15 FF               6037             mov     R7, A
1A16 FF               6038             mov     R7, A
1A17 FF               6039             mov     R7, A
1A18 FF               6040             mov     R7, A
1A19 FF               6041             mov     R7, A
1A1A FF               6042             mov     R7, A
1A1B FF               6043             mov     R7, A
1A1C FF               6044             mov     R7, A
1A1D FF               6045             mov     R7, A
1A1E FF               6046             mov     R7, A
1A1F FF               6047             mov     R7, A
1A20 FF               6048             mov     R7, A
1A21 FF               6049             mov     R7, A
1A22 FF               6050             mov     R7, A
1A23 FF               6051             mov     R7, A
1A24 FF               6052             mov     R7, A
1A25 FF               6053             mov     R7, A
1A26 FF               6054             mov     R7, A
1A27 FF               6055             mov     R7, A
1A28 FF               6056             mov     R7, A
1A29 FF               6057             mov     R7, A
1A2A FF               6058             mov     R7, A
1A2B FF               6059             mov     R7, A
1A2C FF               6060             mov     R7, A
1A2D FF               6061             mov     R7, A
1A2E FF               6062             mov     R7, A
1A2F FF               6063             mov     R7, A
1A30 FF               6064             mov     R7, A
1A31 FF               6065             mov     R7, A
1A32 FF               6066             mov     R7, A
1A33 FF               6067             mov     R7, A
1A34 FF               6068             mov     R7, A
1A35 FF               6069             mov     R7, A
1A36 FF               6070             mov     R7, A
1A37 FF               6071             mov     R7, A
1A38 FF               6072             mov     R7, A
1A39 FF               6073             mov     R7, A
1A3A FF               6074             mov     R7, A
1A3B FF               6075             mov     R7, A
1A3C FF               6076             mov     R7, A
1A3D FF               6077             mov     R7, A
1A3E FF               6078             mov     R7, A
1A3F FF               6079             mov     R7, A
1A40 FF               6080             mov     R7, A
1A41 FF               6081             mov     R7, A
1A42 FF               6082             mov     R7, A
1A43 FF               6083             mov     R7, A
1A44 FF               6084             mov     R7, A
1A45 FF               6085             mov     R7, A
1A46 FF               6086             mov     R7, A
1A47 FF               6087             mov     R7, A
1A48 FF               6088             mov     R7, A
1A49 FF               6089             mov     R7, A
1A4A FF               6090             mov     R7, A
1A4B FF               6091             mov     R7, A
1A4C FF               6092             mov     R7, A
1A4D FF               6093             mov     R7, A
1A4E FF               6094             mov     R7, A
1A4F FF               6095             mov     R7, A
1A50 FF               6096             mov     R7, A
1A51 FF               6097             mov     R7, A
1A52 FF               6098             mov     R7, A
1A53 FF               6099             mov     R7, A
1A54 FF               6100             mov     R7, A
1A55 FF               6101             mov     R7, A
1A56 FF               6102             mov     R7, A
1A57 FF               6103             mov     R7, A
1A58 FF               6104             mov     R7, A
1A59 FF               6105             mov     R7, A
1A5A FF               6106             mov     R7, A
1A5B FF               6107             mov     R7, A
1A5C FF               6108             mov     R7, A
1A5D FF               6109             mov     R7, A
1A5E FF               6110             mov     R7, A
1A5F FF               6111             mov     R7, A
1A60 FF               6112             mov     R7, A
1A61 FF               6113             mov     R7, A
1A62 FF               6114             mov     R7, A
1A63 FF               6115             mov     R7, A
1A64 FF               6116             mov     R7, A
1A65 FF               6117             mov     R7, A
1A66 FF               6118             mov     R7, A
1A67 FF               6119             mov     R7, A
1A68 FF               6120             mov     R7, A
1A69 FF               6121             mov     R7, A
1A6A FF               6122             mov     R7, A
1A6B FF               6123             mov     R7, A
1A6C FF               6124             mov     R7, A
1A6D FF               6125             mov     R7, A
1A6E FF               6126             mov     R7, A
1A6F FF               6127             mov     R7, A
1A70 FF               6128             mov     R7, A
1A71 FF               6129             mov     R7, A
1A72 FF               6130             mov     R7, A
1A73 FF               6131             mov     R7, A
1A74 FF               6132             mov     R7, A
1A75 FF               6133             mov     R7, A
1A76 FF               6134             mov     R7, A
1A77 FF               6135             mov     R7, A
1A78 FF               6136             mov     R7, A
1A79 FF               6137             mov     R7, A
1A7A FF               6138             mov     R7, A
1A7B FF               6139             mov     R7, A
1A7C FF               6140             mov     R7, A
1A7D FF               6141             mov     R7, A
1A7E FF               6142             mov     R7, A
1A7F FF               6143             mov     R7, A
1A80 FF               6144             mov     R7, A
1A81 FF               6145             mov     R7, A
1A82 FF               6146             mov     R7, A
1A83 FF               6147             mov     R7, A
1A84 FF               6148             mov     R7, A
1A85 FF               6149             mov     R7, A
1A86 FF               6150             mov     R7, A
1A87 FF               6151             mov     R7, A
1A88 FF               6152             mov     R7, A
1A89 FF               6153             mov     R7, A
1A8A FF               6154             mov     R7, A
1A8B FF               6155             mov     R7, A
1A8C FF               6156             mov     R7, A
1A8D FF               6157             mov     R7, A
1A8E FF               6158             mov     R7, A
1A8F FF               6159             mov     R7, A
1A90 FF               6160             mov     R7, A
1A91 FF               6161             mov     R7, A
1A92 FF               6162             mov     R7, A
1A93 FF               6163             mov     R7, A
1A94 FF               6164             mov     R7, A
1A95 FF               6165             mov     R7, A
1A96 FF               6166             mov     R7, A
1A97 FF               6167             mov     R7, A
1A98 FF               6168             mov     R7, A
1A99 FF               6169             mov     R7, A
1A9A FF               6170             mov     R7, A
1A9B FF               6171             mov     R7, A
1A9C FF               6172             mov     R7, A
1A9D FF               6173             mov     R7, A
1A9E FF               6174             mov     R7, A
1A9F FF               6175             mov     R7, A
1AA0 FF               6176             mov     R7, A
1AA1 FF               6177             mov     R7, A
1AA2 FF               6178             mov     R7, A
1AA3 FF               6179             mov     R7, A
1AA4 FF               6180             mov     R7, A
1AA5 FF               6181             mov     R7, A
1AA6 FF               6182             mov     R7, A
1AA7 FF               6183             mov     R7, A
1AA8 FF               6184             mov     R7, A
1AA9 FF               6185             mov     R7, A
1AAA FF               6186             mov     R7, A
1AAB FF               6187             mov     R7, A
1AAC FF               6188             mov     R7, A
1AAD FF               6189             mov     R7, A
1AAE FF               6190             mov     R7, A
1AAF FF               6191             mov     R7, A
1AB0 FF               6192             mov     R7, A
1AB1 FF               6193             mov     R7, A
1AB2 FF               6194             mov     R7, A
1AB3 FF               6195             mov     R7, A
1AB4 FF               6196             mov     R7, A
1AB5 FF               6197             mov     R7, A
1AB6 FF               6198             mov     R7, A
1AB7 FF               6199             mov     R7, A
1AB8 FF               6200             mov     R7, A
1AB9 FF               6201             mov     R7, A
1ABA FF               6202             mov     R7, A
1ABB FF               6203             mov     R7, A
1ABC FF               6204             mov     R7, A
1ABD FF               6205             mov     R7, A
1ABE FF               6206             mov     R7, A
1ABF FF               6207             mov     R7, A
1AC0 FF               6208             mov     R7, A
1AC1 FF               6209             mov     R7, A
1AC2 FF               6210             mov     R7, A
1AC3 FF               6211             mov     R7, A
1AC4 FF               6212             mov     R7, A
1AC5 FF               6213             mov     R7, A
1AC6 FF               6214             mov     R7, A
1AC7 FF               6215             mov     R7, A
1AC8 FF               6216             mov     R7, A
1AC9 FF               6217             mov     R7, A
1ACA FF               6218             mov     R7, A
1ACB FF               6219             mov     R7, A
1ACC FF               6220             mov     R7, A
1ACD FF               6221             mov     R7, A
1ACE FF               6222             mov     R7, A
1ACF FF               6223             mov     R7, A
1AD0 FF               6224             mov     R7, A
1AD1 FF               6225             mov     R7, A
1AD2 FF               6226             mov     R7, A
1AD3 FF               6227             mov     R7, A
1AD4 FF               6228             mov     R7, A
1AD5 FF               6229             mov     R7, A
1AD6 FF               6230             mov     R7, A
1AD7 FF               6231             mov     R7, A
1AD8 FF               6232             mov     R7, A
1AD9 FF               6233             mov     R7, A
1ADA FF               6234             mov     R7, A
1ADB FF               6235             mov     R7, A
1ADC FF               6236             mov     R7, A
1ADD FF               6237             mov     R7, A
1ADE FF               6238             mov     R7, A
1ADF FF               6239             mov     R7, A
1AE0 FF               6240             mov     R7, A
1AE1 FF               6241             mov     R7, A
1AE2 FF               6242             mov     R7, A
1AE3 FF               6243             mov     R7, A
1AE4 FF               6244             mov     R7, A
1AE5 FF               6245             mov     R7, A
1AE6 FF               6246             mov     R7, A
1AE7 FF               6247             mov     R7, A
1AE8 FF               6248             mov     R7, A
1AE9 FF               6249             mov     R7, A
1AEA FF               6250             mov     R7, A
1AEB FF               6251             mov     R7, A
1AEC FF               6252             mov     R7, A
1AED FF               6253             mov     R7, A
1AEE FF               6254             mov     R7, A
1AEF FF               6255             mov     R7, A
1AF0 FF               6256             mov     R7, A
1AF1 FF               6257             mov     R7, A
1AF2 FF               6258             mov     R7, A
1AF3 FF               6259             mov     R7, A
1AF4 FF               6260             mov     R7, A
1AF5 FF               6261             mov     R7, A
1AF6 FF               6262             mov     R7, A
1AF7 FF               6263             mov     R7, A
1AF8 FF               6264             mov     R7, A
1AF9 FF               6265             mov     R7, A
1AFA FF               6266             mov     R7, A
1AFB FF               6267             mov     R7, A
1AFC FF               6268             mov     R7, A
1AFD FF               6269             mov     R7, A
1AFE FF               6270             mov     R7, A
1AFF FF               6271             mov     R7, A
1B00 FF               6272             mov     R7, A
1B01 FF               6273             mov     R7, A
1B02 FF               6274             mov     R7, A
1B03 FF               6275             mov     R7, A
1B04 FF               6276             mov     R7, A
1B05 FF               6277             mov     R7, A
1B06 FF               6278             mov     R7, A
1B07 FF               6279             mov     R7, A
1B08 FF               6280             mov     R7, A
1B09 FF               6281             mov     R7, A
1B0A FF               6282             mov     R7, A
1B0B FF               6283             mov     R7, A
1B0C FF               6284             mov     R7, A
1B0D FF               6285             mov     R7, A
1B0E FF               6286             mov     R7, A
1B0F FF               6287             mov     R7, A
1B10 FF               6288             mov     R7, A
1B11 FF               6289             mov     R7, A
1B12 FF               6290             mov     R7, A
1B13 FF               6291             mov     R7, A
1B14 FF               6292             mov     R7, A
1B15 FF               6293             mov     R7, A
1B16 FF               6294             mov     R7, A
1B17 FF               6295             mov     R7, A
1B18 FF               6296             mov     R7, A
1B19 FF               6297             mov     R7, A
1B1A FF               6298             mov     R7, A
1B1B FF               6299             mov     R7, A
1B1C FF               6300             mov     R7, A
1B1D FF               6301             mov     R7, A
1B1E FF               6302             mov     R7, A
1B1F FF               6303             mov     R7, A
1B20 FF               6304             mov     R7, A
1B21 FF               6305             mov     R7, A
1B22 FF               6306             mov     R7, A
1B23 FF               6307             mov     R7, A
1B24 FF               6308             mov     R7, A
1B25 FF               6309             mov     R7, A
1B26 FF               6310             mov     R7, A
1B27 FF               6311             mov     R7, A
1B28 FF               6312             mov     R7, A
1B29 FF               6313             mov     R7, A
1B2A FF               6314             mov     R7, A
1B2B FF               6315             mov     R7, A
1B2C FF               6316             mov     R7, A
1B2D FF               6317             mov     R7, A
1B2E FF               6318             mov     R7, A
1B2F FF               6319             mov     R7, A
1B30 FF               6320             mov     R7, A
1B31 FF               6321             mov     R7, A
1B32 FF               6322             mov     R7, A
1B33 FF               6323             mov     R7, A
1B34 FF               6324             mov     R7, A
1B35 FF               6325             mov     R7, A
1B36 FF               6326             mov     R7, A
1B37 FF               6327             mov     R7, A
1B38 FF               6328             mov     R7, A
1B39 FF               6329             mov     R7, A
1B3A FF               6330             mov     R7, A
1B3B FF               6331             mov     R7, A
1B3C FF               6332             mov     R7, A
1B3D FF               6333             mov     R7, A
1B3E FF               6334             mov     R7, A
1B3F FF               6335             mov     R7, A
1B40 FF               6336             mov     R7, A
1B41 FF               6337             mov     R7, A
1B42 FF               6338             mov     R7, A
1B43 FF               6339             mov     R7, A
1B44 FF               6340             mov     R7, A
1B45 FF               6341             mov     R7, A
1B46 FF               6342             mov     R7, A
1B47 FF               6343             mov     R7, A
1B48 FF               6344             mov     R7, A
1B49 FF               6345             mov     R7, A
1B4A FF               6346             mov     R7, A
1B4B FF               6347             mov     R7, A
1B4C FF               6348             mov     R7, A
1B4D FF               6349             mov     R7, A
1B4E FF               6350             mov     R7, A
1B4F FF               6351             mov     R7, A
1B50 FF               6352             mov     R7, A
1B51 FF               6353             mov     R7, A
1B52 FF               6354             mov     R7, A
1B53 FF               6355             mov     R7, A
1B54 FF               6356             mov     R7, A
1B55 FF               6357             mov     R7, A
1B56 FF               6358             mov     R7, A
1B57 FF               6359             mov     R7, A
1B58 FF               6360             mov     R7, A
1B59 FF               6361             mov     R7, A
1B5A FF               6362             mov     R7, A
1B5B FF               6363             mov     R7, A
1B5C FF               6364             mov     R7, A
1B5D FF               6365             mov     R7, A
1B5E FF               6366             mov     R7, A
1B5F FF               6367             mov     R7, A
1B60 FF               6368             mov     R7, A
1B61 FF               6369             mov     R7, A
1B62 FF               6370             mov     R7, A
1B63 FF               6371             mov     R7, A
1B64 FF               6372             mov     R7, A
1B65 FF               6373             mov     R7, A
1B66 FF               6374             mov     R7, A
1B67 FF               6375             mov     R7, A
1B68 FF               6376             mov     R7, A
1B69 FF               6377             mov     R7, A
1B6A FF               6378             mov     R7, A
1B6B FF               6379             mov     R7, A
1B6C FF               6380             mov     R7, A
1B6D FF               6381             mov     R7, A
1B6E FF               6382             mov     R7, A
1B6F FF               6383             mov     R7, A
1B70 FF               6384             mov     R7, A
1B71 FF               6385             mov     R7, A
1B72 FF               6386             mov     R7, A
1B73 FF               6387             mov     R7, A
1B74 FF               6388             mov     R7, A
1B75 FF               6389             mov     R7, A
1B76 FF               6390             mov     R7, A
1B77 FF               6391             mov     R7, A
1B78 FF               6392             mov     R7, A
1B79 FF               6393             mov     R7, A
1B7A FF               6394             mov     R7, A
1B7B FF               6395             mov     R7, A
1B7C FF               6396             mov     R7, A
1B7D FF               6397             mov     R7, A
1B7E FF               6398             mov     R7, A
1B7F FF               6399             mov     R7, A
1B80 FF               6400             mov     R7, A
1B81 FF               6401             mov     R7, A
1B82 FF               6402             mov     R7, A
1B83 FF               6403             mov     R7, A
1B84 FF               6404             mov     R7, A
1B85 FF               6405             mov     R7, A
1B86 FF               6406             mov     R7, A
1B87 FF               6407             mov     R7, A
1B88 FF               6408             mov     R7, A
1B89 FF               6409             mov     R7, A
1B8A FF               6410             mov     R7, A
1B8B FF               6411             mov     R7, A
1B8C FF               6412             mov     R7, A
1B8D FF               6413             mov     R7, A
1B8E FF               6414             mov     R7, A
1B8F FF               6415             mov     R7, A
1B90 FF               6416             mov     R7, A
1B91 FF               6417             mov     R7, A
1B92 FF               6418             mov     R7, A
1B93 FF               6419             mov     R7, A
1B94 FF               6420             mov     R7, A
1B95 FF               6421             mov     R7, A
1B96 FF               6422             mov     R7, A
1B97 FF               6423             mov     R7, A
1B98 FF               6424             mov     R7, A
1B99 FF               6425             mov     R7, A
1B9A FF               6426             mov     R7, A
1B9B FF               6427             mov     R7, A
1B9C FF               6428             mov     R7, A
1B9D FF               6429             mov     R7, A
1B9E FF               6430             mov     R7, A
1B9F FF               6431             mov     R7, A
1BA0 FF               6432             mov     R7, A
1BA1 FF               6433             mov     R7, A
1BA2 FF               6434             mov     R7, A
1BA3 FF               6435             mov     R7, A
1BA4 FF               6436             mov     R7, A
1BA5 FF               6437             mov     R7, A
1BA6 FF               6438             mov     R7, A
1BA7 FF               6439             mov     R7, A
1BA8 FF               6440             mov     R7, A
1BA9 FF               6441             mov     R7, A
1BAA FF               6442             mov     R7, A
1BAB FF               6443             mov     R7, A
1BAC FF               6444             mov     R7, A
1BAD FF               6445             mov     R7, A
1BAE FF               6446             mov     R7, A
1BAF FF               6447             mov     R7, A
1BB0 FF               6448             mov     R7, A
1BB1 FF               6449             mov     R7, A
1BB2 FF               6450             mov     R7, A
1BB3 FF               6451             mov     R7, A
1BB4 FF               6452             mov     R7, A
1BB5 FF               6453             mov     R7, A
1BB6 FF               6454             mov     R7, A
1BB7 FF               6455             mov     R7, A
1BB8 FF               6456             mov     R7, A
1BB9 FF               6457             mov     R7, A
1BBA FF               6458             mov     R7, A
1BBB FF               6459             mov     R7, A
1BBC FF               6460             mov     R7, A
1BBD FF               6461             mov     R7, A
1BBE FF               6462             mov     R7, A
1BBF FF               6463             mov     R7, A
1BC0 FF               6464             mov     R7, A
1BC1 FF               6465             mov     R7, A
1BC2 FF               6466             mov     R7, A
1BC3 FF               6467             mov     R7, A
1BC4 FF               6468             mov     R7, A
1BC5 FF               6469             mov     R7, A
1BC6 FF               6470             mov     R7, A
1BC7 FF               6471             mov     R7, A
1BC8 FF               6472             mov     R7, A
1BC9 FF               6473             mov     R7, A
1BCA FF               6474             mov     R7, A
1BCB FF               6475             mov     R7, A
1BCC FF               6476             mov     R7, A
1BCD FF               6477             mov     R7, A
1BCE FF               6478             mov     R7, A
1BCF FF               6479             mov     R7, A
1BD0 FF               6480             mov     R7, A
1BD1 FF               6481             mov     R7, A
1BD2 FF               6482             mov     R7, A
1BD3 FF               6483             mov     R7, A
1BD4 FF               6484             mov     R7, A
1BD5 FF               6485             mov     R7, A
1BD6 FF               6486             mov     R7, A
1BD7 FF               6487             mov     R7, A
1BD8 FF               6488             mov     R7, A
1BD9 FF               6489             mov     R7, A
1BDA FF               6490             mov     R7, A
1BDB FF               6491             mov     R7, A
1BDC FF               6492             mov     R7, A
1BDD FF               6493             mov     R7, A
1BDE FF               6494             mov     R7, A
1BDF FF               6495             mov     R7, A
1BE0 FF               6496             mov     R7, A
1BE1 FF               6497             mov     R7, A
1BE2 FF               6498             mov     R7, A
1BE3 FF               6499             mov     R7, A
1BE4 FF               6500             mov     R7, A
1BE5 FF               6501             mov     R7, A
1BE6 FF               6502             mov     R7, A
1BE7 FF               6503             mov     R7, A
1BE8 FF               6504             mov     R7, A
1BE9 FF               6505             mov     R7, A
1BEA FF               6506             mov     R7, A
1BEB FF               6507             mov     R7, A
1BEC FF               6508             mov     R7, A
1BED FF               6509             mov     R7, A
1BEE FF               6510             mov     R7, A
1BEF FF               6511             mov     R7, A
1BF0 FF               6512             mov     R7, A
1BF1 FF               6513             mov     R7, A
1BF2 FF               6514             mov     R7, A
1BF3 FF               6515             mov     R7, A
1BF4 FF               6516             mov     R7, A
1BF5 FF               6517             mov     R7, A
1BF6 FF               6518             mov     R7, A
1BF7 FF               6519             mov     R7, A
1BF8 FF               6520             mov     R7, A
1BF9 FF               6521             mov     R7, A
1BFA FF               6522             mov     R7, A
1BFB FF               6523             mov     R7, A
1BFC FF               6524             mov     R7, A
1BFD FF               6525             mov     R7, A
1BFE FF               6526             mov     R7, A
1BFF FF               6527             mov     R7, A
1C00 FF               6528             mov     R7, A
1C01 FF               6529             mov     R7, A
1C02 FF               6530             mov     R7, A
1C03 FF               6531             mov     R7, A
1C04 FF               6532             mov     R7, A
1C05 FF               6533             mov     R7, A
1C06 FF               6534             mov     R7, A
1C07 FF               6535             mov     R7, A
1C08 FF               6536             mov     R7, A
1C09 FF               6537             mov     R7, A
1C0A FF               6538             mov     R7, A
1C0B FF               6539             mov     R7, A
1C0C FF               6540             mov     R7, A
1C0D FF               6541             mov     R7, A
1C0E FF               6542             mov     R7, A
1C0F FF               6543             mov     R7, A
1C10 FF               6544             mov     R7, A
1C11 FF               6545             mov     R7, A
1C12 FF               6546             mov     R7, A
1C13 FF               6547             mov     R7, A
1C14 FF               6548             mov     R7, A
1C15 FF               6549             mov     R7, A
1C16 FF               6550             mov     R7, A
1C17 FF               6551             mov     R7, A
1C18 FF               6552             mov     R7, A
1C19 FF               6553             mov     R7, A
1C1A FF               6554             mov     R7, A
1C1B FF               6555             mov     R7, A
1C1C FF               6556             mov     R7, A
1C1D FF               6557             mov     R7, A
1C1E FF               6558             mov     R7, A
1C1F FF               6559             mov     R7, A
1C20 FF               6560             mov     R7, A
1C21 FF               6561             mov     R7, A
1C22 FF               6562             mov     R7, A
1C23 FF               6563             mov     R7, A
1C24 FF               6564             mov     R7, A
1C25 FF               6565             mov     R7, A
1C26 FF               6566             mov     R7, A
1C27 FF               6567             mov     R7, A
1C28 FF               6568             mov     R7, A
1C29 FF               6569             mov     R7, A
1C2A FF               6570             mov     R7, A
1C2B FF               6571             mov     R7, A
1C2C FF               6572             mov     R7, A
1C2D FF               6573             mov     R7, A
1C2E FF               6574             mov     R7, A
1C2F FF               6575             mov     R7, A
1C30 FF               6576             mov     R7, A
1C31 FF               6577             mov     R7, A
1C32 FF               6578             mov     R7, A
1C33 FF               6579             mov     R7, A
1C34 FF               6580             mov     R7, A
1C35 FF               6581             mov     R7, A
1C36 FF               6582             mov     R7, A
1C37 FF               6583             mov     R7, A
1C38 FF               6584             mov     R7, A
1C39 FF               6585             mov     R7, A
1C3A FF               6586             mov     R7, A
1C3B FF               6587             mov     R7, A
1C3C FF               6588             mov     R7, A
1C3D FF               6589             mov     R7, A
1C3E FF               6590             mov     R7, A
1C3F FF               6591             mov     R7, A
1C40 FF               6592             mov     R7, A
1C41 FF               6593             mov     R7, A
1C42 FF               6594             mov     R7, A
1C43 FF               6595             mov     R7, A
1C44 FF               6596             mov     R7, A
1C45 FF               6597             mov     R7, A
1C46 FF               6598             mov     R7, A
1C47 FF               6599             mov     R7, A
1C48 FF               6600             mov     R7, A
1C49 FF               6601             mov     R7, A
1C4A FF               6602             mov     R7, A
1C4B FF               6603             mov     R7, A
1C4C FF               6604             mov     R7, A
1C4D FF               6605             mov     R7, A
1C4E FF               6606             mov     R7, A
1C4F FF               6607             mov     R7, A
1C50 FF               6608             mov     R7, A
1C51 FF               6609             mov     R7, A
1C52 FF               6610             mov     R7, A
1C53 FF               6611             mov     R7, A
1C54 FF               6612             mov     R7, A
1C55 FF               6613             mov     R7, A
1C56 FF               6614             mov     R7, A
1C57 FF               6615             mov     R7, A
1C58 FF               6616             mov     R7, A
1C59 FF               6617             mov     R7, A
1C5A FF               6618             mov     R7, A
1C5B FF               6619             mov     R7, A
1C5C FF               6620             mov     R7, A
1C5D FF               6621             mov     R7, A
1C5E FF               6622             mov     R7, A
1C5F FF               6623             mov     R7, A
1C60 FF               6624             mov     R7, A
1C61 FF               6625             mov     R7, A
1C62 FF               6626             mov     R7, A
1C63 FF               6627             mov     R7, A
1C64 FF               6628             mov     R7, A
1C65 FF               6629             mov     R7, A
1C66 FF               6630             mov     R7, A
1C67 FF               6631             mov     R7, A
1C68 FF               6632             mov     R7, A
1C69 FF               6633             mov     R7, A
1C6A FF               6634             mov     R7, A
1C6B FF               6635             mov     R7, A
1C6C FF               6636             mov     R7, A
1C6D FF               6637             mov     R7, A
1C6E FF               6638             mov     R7, A
1C6F FF               6639             mov     R7, A
1C70 FF               6640             mov     R7, A
1C71 FF               6641             mov     R7, A
1C72 FF               6642             mov     R7, A
1C73 FF               6643             mov     R7, A
1C74 FF               6644             mov     R7, A
1C75 FF               6645             mov     R7, A
1C76 FF               6646             mov     R7, A
1C77 FF               6647             mov     R7, A
1C78 FF               6648             mov     R7, A
1C79 FF               6649             mov     R7, A
1C7A FF               6650             mov     R7, A
1C7B FF               6651             mov     R7, A
1C7C FF               6652             mov     R7, A
1C7D FF               6653             mov     R7, A
1C7E FF               6654             mov     R7, A
1C7F FF               6655             mov     R7, A
1C80 FF               6656             mov     R7, A
1C81 FF               6657             mov     R7, A
1C82 FF               6658             mov     R7, A
1C83 FF               6659             mov     R7, A
1C84 FF               6660             mov     R7, A
1C85 FF               6661             mov     R7, A
1C86 FF               6662             mov     R7, A
1C87 FF               6663             mov     R7, A
1C88 FF               6664             mov     R7, A
1C89 FF               6665             mov     R7, A
1C8A FF               6666             mov     R7, A
1C8B FF               6667             mov     R7, A
1C8C FF               6668             mov     R7, A
1C8D FF               6669             mov     R7, A
1C8E FF               6670             mov     R7, A
1C8F FF               6671             mov     R7, A
1C90 FF               6672             mov     R7, A
1C91 FF               6673             mov     R7, A
1C92 FF               6674             mov     R7, A
1C93 FF               6675             mov     R7, A
1C94 FF               6676             mov     R7, A
1C95 FF               6677             mov     R7, A
1C96 FF               6678             mov     R7, A
1C97 FF               6679             mov     R7, A
1C98 FF               6680             mov     R7, A
1C99 FF               6681             mov     R7, A
1C9A FF               6682             mov     R7, A
1C9B FF               6683             mov     R7, A
1C9C FF               6684             mov     R7, A
1C9D FF               6685             mov     R7, A
1C9E FF               6686             mov     R7, A
1C9F FF               6687             mov     R7, A
1CA0 FF               6688             mov     R7, A
1CA1 FF               6689             mov     R7, A
1CA2 FF               6690             mov     R7, A
1CA3 FF               6691             mov     R7, A
1CA4 FF               6692             mov     R7, A
1CA5 FF               6693             mov     R7, A
1CA6 FF               6694             mov     R7, A
1CA7 FF               6695             mov     R7, A
1CA8 FF               6696             mov     R7, A
1CA9 FF               6697             mov     R7, A
1CAA FF               6698             mov     R7, A
1CAB FF               6699             mov     R7, A
1CAC FF               6700             mov     R7, A
1CAD FF               6701             mov     R7, A
1CAE FF               6702             mov     R7, A
1CAF FF               6703             mov     R7, A
1CB0 FF               6704             mov     R7, A
1CB1 FF               6705             mov     R7, A
1CB2 FF               6706             mov     R7, A
1CB3 FF               6707             mov     R7, A
1CB4 FF               6708             mov     R7, A
1CB5 FF               6709             mov     R7, A
1CB6 FF               6710             mov     R7, A
1CB7 FF               6711             mov     R7, A
1CB8 FF               6712             mov     R7, A
1CB9 FF               6713             mov     R7, A
1CBA FF               6714             mov     R7, A
1CBB FF               6715             mov     R7, A
1CBC FF               6716             mov     R7, A
1CBD FF               6717             mov     R7, A
1CBE FF               6718             mov     R7, A
1CBF FF               6719             mov     R7, A
1CC0 FF               6720             mov     R7, A
1CC1 FF               6721             mov     R7, A
1CC2 FF               6722             mov     R7, A
1CC3 FF               6723             mov     R7, A
1CC4 FF               6724             mov     R7, A
1CC5 FF               6725             mov     R7, A
1CC6 FF               6726             mov     R7, A
1CC7 FF               6727             mov     R7, A
1CC8 FF               6728             mov     R7, A
1CC9 FF               6729             mov     R7, A
1CCA FF               6730             mov     R7, A
1CCB FF               6731             mov     R7, A
1CCC FF               6732             mov     R7, A
1CCD FF               6733             mov     R7, A
1CCE FF               6734             mov     R7, A
1CCF FF               6735             mov     R7, A
1CD0 FF               6736             mov     R7, A
1CD1 FF               6737             mov     R7, A
1CD2 FF               6738             mov     R7, A
1CD3 FF               6739             mov     R7, A
1CD4 FF               6740             mov     R7, A
1CD5 FF               6741             mov     R7, A
1CD6 FF               6742             mov     R7, A
1CD7 FF               6743             mov     R7, A
1CD8 FF               6744             mov     R7, A
1CD9 FF               6745             mov     R7, A
1CDA FF               6746             mov     R7, A
1CDB FF               6747             mov     R7, A
1CDC FF               6748             mov     R7, A
1CDD FF               6749             mov     R7, A
1CDE FF               6750             mov     R7, A
1CDF FF               6751             mov     R7, A
1CE0 FF               6752             mov     R7, A
1CE1 FF               6753             mov     R7, A
1CE2 FF               6754             mov     R7, A
1CE3 FF               6755             mov     R7, A
1CE4 FF               6756             mov     R7, A
1CE5 FF               6757             mov     R7, A
1CE6 FF               6758             mov     R7, A
1CE7 FF               6759             mov     R7, A
1CE8 FF               6760             mov     R7, A
1CE9 FF               6761             mov     R7, A
1CEA FF               6762             mov     R7, A
1CEB FF               6763             mov     R7, A
1CEC FF               6764             mov     R7, A
1CED FF               6765             mov     R7, A
1CEE FF               6766             mov     R7, A
1CEF FF               6767             mov     R7, A
1CF0 FF               6768             mov     R7, A
1CF1 FF               6769             mov     R7, A
1CF2 FF               6770             mov     R7, A
1CF3 FF               6771             mov     R7, A
1CF4 FF               6772             mov     R7, A
1CF5 FF               6773             mov     R7, A
1CF6 FF               6774             mov     R7, A
1CF7 FF               6775             mov     R7, A
1CF8 FF               6776             mov     R7, A
1CF9 FF               6777             mov     R7, A
1CFA FF               6778             mov     R7, A
1CFB FF               6779             mov     R7, A
1CFC FF               6780             mov     R7, A
1CFD FF               6781             mov     R7, A
1CFE FF               6782             mov     R7, A
1CFF FF               6783             mov     R7, A
1D00 FF               6784             mov     R7, A
1D01 FF               6785             mov     R7, A
1D02 FF               6786             mov     R7, A
1D03 FF               6787             mov     R7, A
1D04 FF               6788             mov     R7, A
1D05 FF               6789             mov     R7, A
1D06 FF               6790             mov     R7, A
1D07 FF               6791             mov     R7, A
1D08 FF               6792             mov     R7, A
1D09 FF               6793             mov     R7, A
1D0A FF               6794             mov     R7, A
1D0B FF               6795             mov     R7, A
1D0C FF               6796             mov     R7, A
1D0D FF               6797             mov     R7, A
1D0E FF               6798             mov     R7, A
1D0F FF               6799             mov     R7, A
1D10 FF               6800             mov     R7, A
1D11 FF               6801             mov     R7, A
1D12 FF               6802             mov     R7, A
1D13 FF               6803             mov     R7, A
1D14 FF               6804             mov     R7, A
1D15 FF               6805             mov     R7, A
1D16 FF               6806             mov     R7, A
1D17 FF               6807             mov     R7, A
1D18 FF               6808             mov     R7, A
1D19 FF               6809             mov     R7, A
1D1A FF               6810             mov     R7, A
1D1B FF               6811             mov     R7, A
1D1C FF               6812             mov     R7, A
1D1D FF               6813             mov     R7, A
1D1E FF               6814             mov     R7, A
1D1F FF               6815             mov     R7, A
1D20 FF               6816             mov     R7, A
1D21 FF               6817             mov     R7, A
1D22 FF               6818             mov     R7, A
1D23 FF               6819             mov     R7, A
1D24 FF               6820             mov     R7, A
1D25 FF               6821             mov     R7, A
1D26 FF               6822             mov     R7, A
1D27 FF               6823             mov     R7, A
1D28 FF               6824             mov     R7, A
1D29 FF               6825             mov     R7, A
1D2A FF               6826             mov     R7, A
1D2B FF               6827             mov     R7, A
1D2C FF               6828             mov     R7, A
1D2D FF               6829             mov     R7, A
1D2E FF               6830             mov     R7, A
1D2F FF               6831             mov     R7, A
1D30 FF               6832             mov     R7, A
1D31 FF               6833             mov     R7, A
1D32 FF               6834             mov     R7, A
1D33 FF               6835             mov     R7, A
1D34 FF               6836             mov     R7, A
1D35 FF               6837             mov     R7, A
1D36 FF               6838             mov     R7, A
1D37 FF               6839             mov     R7, A
1D38 FF               6840             mov     R7, A
1D39 FF               6841             mov     R7, A
1D3A FF               6842             mov     R7, A
1D3B FF               6843             mov     R7, A
1D3C FF               6844             mov     R7, A
1D3D FF               6845             mov     R7, A
1D3E FF               6846             mov     R7, A
1D3F FF               6847             mov     R7, A
1D40 FF               6848             mov     R7, A
1D41 FF               6849             mov     R7, A
1D42 FF               6850             mov     R7, A
1D43 FF               6851             mov     R7, A
1D44 FF               6852             mov     R7, A
1D45 FF               6853             mov     R7, A
1D46 FF               6854             mov     R7, A
1D47 FF               6855             mov     R7, A
1D48 FF               6856             mov     R7, A
1D49 FF               6857             mov     R7, A
1D4A FF               6858             mov     R7, A
1D4B FF               6859             mov     R7, A
1D4C FF               6860             mov     R7, A
1D4D FF               6861             mov     R7, A
1D4E FF               6862             mov     R7, A
1D4F FF               6863             mov     R7, A
1D50 FF               6864             mov     R7, A
1D51 FF               6865             mov     R7, A
1D52 FF               6866             mov     R7, A
1D53 FF               6867             mov     R7, A
1D54 FF               6868             mov     R7, A
1D55 FF               6869             mov     R7, A
1D56 FF               6870             mov     R7, A
1D57 FF               6871             mov     R7, A
1D58 FF               6872             mov     R7, A
1D59 FF               6873             mov     R7, A
1D5A FF               6874             mov     R7, A
1D5B FF               6875             mov     R7, A
1D5C FF               6876             mov     R7, A
1D5D FF               6877             mov     R7, A
1D5E FF               6878             mov     R7, A
1D5F FF               6879             mov     R7, A
1D60 FF               6880             mov     R7, A
1D61 FF               6881             mov     R7, A
1D62 FF               6882             mov     R7, A
1D63 FF               6883             mov     R7, A
1D64 FF               6884             mov     R7, A
1D65 FF               6885             mov     R7, A
1D66 FF               6886             mov     R7, A
1D67 FF               6887             mov     R7, A
1D68 FF               6888             mov     R7, A
1D69 FF               6889             mov     R7, A
1D6A FF               6890             mov     R7, A
1D6B FF               6891             mov     R7, A
1D6C FF               6892             mov     R7, A
1D6D FF               6893             mov     R7, A
1D6E FF               6894             mov     R7, A
1D6F FF               6895             mov     R7, A
1D70 FF               6896             mov     R7, A
1D71 FF               6897             mov     R7, A
1D72 FF               6898             mov     R7, A
1D73 FF               6899             mov     R7, A
1D74 FF               6900             mov     R7, A
1D75 FF               6901             mov     R7, A
1D76 FF               6902             mov     R7, A
1D77 FF               6903             mov     R7, A
1D78 FF               6904             mov     R7, A
1D79 FF               6905             mov     R7, A
1D7A FF               6906             mov     R7, A
1D7B FF               6907             mov     R7, A
1D7C FF               6908             mov     R7, A
1D7D FF               6909             mov     R7, A
1D7E FF               6910             mov     R7, A
1D7F FF               6911             mov     R7, A
1D80 FF               6912             mov     R7, A
1D81 FF               6913             mov     R7, A
1D82 FF               6914             mov     R7, A
1D83 FF               6915             mov     R7, A
1D84 FF               6916             mov     R7, A
1D85 FF               6917             mov     R7, A
1D86 FF               6918             mov     R7, A
1D87 FF               6919             mov     R7, A
1D88 FF               6920             mov     R7, A
1D89 FF               6921             mov     R7, A
1D8A FF               6922             mov     R7, A
1D8B FF               6923             mov     R7, A
1D8C FF               6924             mov     R7, A
1D8D FF               6925             mov     R7, A
1D8E FF               6926             mov     R7, A
1D8F FF               6927             mov     R7, A
1D90 FF               6928             mov     R7, A
1D91 FF               6929             mov     R7, A
1D92 FF               6930             mov     R7, A
1D93 FF               6931             mov     R7, A
1D94 FF               6932             mov     R7, A
1D95 FF               6933             mov     R7, A
1D96 FF               6934             mov     R7, A
1D97 FF               6935             mov     R7, A
1D98 FF               6936             mov     R7, A
1D99 FF               6937             mov     R7, A
1D9A FF               6938             mov     R7, A
1D9B FF               6939             mov     R7, A
1D9C FF               6940             mov     R7, A
1D9D FF               6941             mov     R7, A
1D9E FF               6942             mov     R7, A
1D9F FF               6943             mov     R7, A
1DA0 FF               6944             mov     R7, A
1DA1 FF               6945             mov     R7, A
1DA2 FF               6946             mov     R7, A
1DA3 FF               6947             mov     R7, A
1DA4 FF               6948             mov     R7, A
1DA5 FF               6949             mov     R7, A
1DA6 FF               6950             mov     R7, A
1DA7 FF               6951             mov     R7, A
1DA8 FF               6952             mov     R7, A
1DA9 FF               6953             mov     R7, A
1DAA FF               6954             mov     R7, A
1DAB FF               6955             mov     R7, A
1DAC FF               6956             mov     R7, A
1DAD FF               6957             mov     R7, A
1DAE FF               6958             mov     R7, A
1DAF FF               6959             mov     R7, A
1DB0 FF               6960             mov     R7, A
1DB1 FF               6961             mov     R7, A
1DB2 FF               6962             mov     R7, A
1DB3 FF               6963             mov     R7, A
1DB4 FF               6964             mov     R7, A
1DB5 FF               6965             mov     R7, A
1DB6 FF               6966             mov     R7, A
1DB7 FF               6967             mov     R7, A
1DB8 FF               6968             mov     R7, A
1DB9 FF               6969             mov     R7, A
1DBA FF               6970             mov     R7, A
1DBB FF               6971             mov     R7, A
1DBC FF               6972             mov     R7, A
1DBD FF               6973             mov     R7, A
1DBE FF               6974             mov     R7, A
1DBF FF               6975             mov     R7, A
1DC0 FF               6976             mov     R7, A
1DC1 FF               6977             mov     R7, A
1DC2 FF               6978             mov     R7, A
1DC3 FF               6979             mov     R7, A
1DC4 FF               6980             mov     R7, A
1DC5 FF               6981             mov     R7, A
1DC6 FF               6982             mov     R7, A
1DC7 FF               6983             mov     R7, A
1DC8 FF               6984             mov     R7, A
1DC9 FF               6985             mov     R7, A
1DCA FF               6986             mov     R7, A
1DCB FF               6987             mov     R7, A
1DCC FF               6988             mov     R7, A
1DCD FF               6989             mov     R7, A
1DCE FF               6990             mov     R7, A
1DCF FF               6991             mov     R7, A
1DD0 FF               6992             mov     R7, A
1DD1 FF               6993             mov     R7, A
1DD2 FF               6994             mov     R7, A
1DD3 FF               6995             mov     R7, A
1DD4 FF               6996             mov     R7, A
1DD5 FF               6997             mov     R7, A
1DD6 FF               6998             mov     R7, A
1DD7 FF               6999             mov     R7, A
1DD8 FF               7000             mov     R7, A
1DD9 FF               7001             mov     R7, A
1DDA FF               7002             mov     R7, A
1DDB FF               7003             mov     R7, A
1DDC FF               7004             mov     R7, A
1DDD FF               7005             mov     R7, A
1DDE FF               7006             mov     R7, A
1DDF FF               7007             mov     R7, A
1DE0 FF               7008             mov     R7, A
1DE1 FF               7009             mov     R7, A
1DE2 FF               7010             mov     R7, A
1DE3 FF               7011             mov     R7, A
1DE4 FF               7012             mov     R7, A
1DE5 FF               7013             mov     R7, A
1DE6 FF               7014             mov     R7, A
1DE7 FF               7015             mov     R7, A
1DE8 FF               7016             mov     R7, A
1DE9 FF               7017             mov     R7, A
1DEA FF               7018             mov     R7, A
1DEB FF               7019             mov     R7, A
1DEC FF               7020             mov     R7, A
1DED FF               7021             mov     R7, A
1DEE FF               7022             mov     R7, A
1DEF FF               7023             mov     R7, A
1DF0 FF               7024             mov     R7, A
1DF1 FF               7025             mov     R7, A
1DF2 FF               7026             mov     R7, A
1DF3 FF               7027             mov     R7, A
1DF4 FF               7028             mov     R7, A
1DF5 FF               7029             mov     R7, A
1DF6 FF               7030             mov     R7, A
1DF7 FF               7031             mov     R7, A
1DF8 FF               7032             mov     R7, A
1DF9 FF               7033             mov     R7, A
1DFA FF               7034             mov     R7, A
1DFB FF               7035             mov     R7, A
1DFC FF               7036             mov     R7, A
1DFD FF               7037             mov     R7, A
1DFE FF               7038             mov     R7, A
1DFF FF               7039             mov     R7, A
1E00 FF               7040             mov     R7, A
1E01 FF               7041             mov     R7, A
1E02 FF               7042             mov     R7, A
1E03 FF               7043             mov     R7, A
1E04 FF               7044             mov     R7, A
1E05 FF               7045             mov     R7, A
1E06 FF               7046             mov     R7, A
1E07 FF               7047             mov     R7, A
1E08 FF               7048             mov     R7, A
1E09 FF               7049             mov     R7, A
1E0A FF               7050             mov     R7, A
1E0B FF               7051             mov     R7, A
1E0C FF               7052             mov     R7, A
1E0D FF               7053             mov     R7, A
1E0E FF               7054             mov     R7, A
1E0F FF               7055             mov     R7, A
1E10 FF               7056             mov     R7, A
                      7057     label51:
1E11 FF               7058             mov     R7, A
1E12 FF               7059             mov     R7, A
1E13 FF               7060             mov     R7, A
1E14 FF               7061             mov     R7, A
1E15 FF               7062             mov     R7, A
1E16 FF               7063             mov     R7, A
1E17 FF               7064             mov     R7, A
1E18 FF               7065             mov     R7, A
1E19 FF               7066             mov     R7, A
1E1A FF               7067             mov     R7, A
1E1B FF               7068             mov     R7, A
1E1C FF               7069             mov     R7, A
1E1D FF               7070             mov     R7, A
1E1E FF               7071             mov     R7, A
1E1F FF               7072             mov     R7, A
1E20 FF               7073             mov     R7, A
1E21 FF               7074             mov     R7, A
1E22 FF               7075             mov     R7, A
1E23 FF               7076             mov     R7, A
1E24 FF               7077             mov     R7, A
1E25 FF               7078             mov     R7, A
1E26 FF               7079             mov     R7, A
1E27 FF               7080             mov     R7, A
1E28 FF               7081             mov     R7, A
1E29 FF               7082             mov     R7, A
1E2A FF               7083             mov     R7, A
1E2B FF               7084             mov     R7, A
1E2C FF               7085             mov     R7, A
1E2D FF               7086             mov     R7, A
1E2E FF               7087             mov     R7, A
1E2F FF               7088             mov     R7, A
1E30 FF               7089             mov     R7, A
1E31 FF               7090             mov     R7, A
1E32 FF               7091             mov     R7, A
1E33 FF               7092             mov     R7, A
1E34 FF               7093             mov     R7, A
1E35 FF               7094             mov     R7, A
1E36 FF               7095             mov     R7, A
1E37 FF               7096             mov     R7, A
1E38 FF               7097             mov     R7, A
1E39 FF               7098             mov     R7, A
1E3A FF               7099             mov     R7, A
1E3B FF               7100             mov     R7, A
1E3C FF               7101             mov     R7, A
1E3D FF               7102             mov     R7, A
1E3E FF               7103             mov     R7, A
1E3F FF               7104             mov     R7, A
1E40 FF               7105             mov     R7, A
1E41 FF               7106             mov     R7, A
1E42 FF               7107             mov     R7, A
1E43 FF               7108             mov     R7, A
1E44 FF               7109             mov     R7, A
1E45 FF               7110             mov     R7, A
1E46 FF               7111             mov     R7, A
1E47 FF               7112             mov     R7, A
1E48 FF               7113             mov     R7, A
1E49 FF               7114             mov     R7, A
1E4A FF               7115             mov     R7, A
1E4B FF               7116             mov     R7, A
1E4C FF               7117             mov     R7, A
1E4D FF               7118             mov     R7, A
1E4E FF               7119             mov     R7, A
1E4F FF               7120             mov     R7, A
1E50 FF               7121             mov     R7, A
1E51 FF               7122             mov     R7, A
1E52 FF               7123             mov     R7, A
1E53 FF               7124             mov     R7, A
1E54 FF               7125             mov     R7, A
1E55 FF               7126             mov     R7, A
1E56 FF               7127             mov     R7, A
1E57 FF               7128             mov     R7, A
1E58 FF               7129             mov     R7, A
1E59 FF               7130             mov     R7, A
1E5A FF               7131             mov     R7, A
1E5B FF               7132             mov     R7, A
1E5C FF               7133             mov     R7, A
1E5D FF               7134             mov     R7, A
1E5E FF               7135             mov     R7, A
1E5F FF               7136             mov     R7, A
1E60 FF               7137             mov     R7, A
1E61 FF               7138             mov     R7, A
1E62 FF               7139             mov     R7, A
1E63 FF               7140             mov     R7, A
1E64 FF               7141             mov     R7, A
1E65 FF               7142             mov     R7, A
1E66 FF               7143             mov     R7, A
1E67 FF               7144             mov     R7, A
1E68 FF               7145             mov     R7, A
1E69 FF               7146             mov     R7, A
1E6A FF               7147             mov     R7, A
1E6B FF               7148             mov     R7, A
1E6C FF               7149             mov     R7, A
1E6D FF               7150             mov     R7, A
1E6E FF               7151             mov     R7, A
1E6F FF               7152             mov     R7, A
1E70 FF               7153             mov     R7, A
1E71 FF               7154             mov     R7, A
1E72 FF               7155             mov     R7, A
1E73 FF               7156             mov     R7, A
1E74 FF               7157             mov     R7, A
1E75 FF               7158             mov     R7, A
1E76 FF               7159             mov     R7, A
1E77 FF               7160             mov     R7, A
1E78 FF               7161             mov     R7, A
1E79 FF               7162             mov     R7, A
1E7A FF               7163             mov     R7, A
1E7B FF               7164             mov     R7, A
1E7C FF               7165             mov     R7, A
1E7D FF               7166             mov     R7, A
1E7E FF               7167             mov     R7, A
1E7F FF               7168             mov     R7, A
1E80 FF               7169             mov     R7, A
1E81 FF               7170             mov     R7, A
1E82 FF               7171             mov     R7, A
1E83 FF               7172             mov     R7, A
1E84 FF               7173             mov     R7, A
1E85 FF               7174             mov     R7, A
1E86 FF               7175             mov     R7, A
1E87 FF               7176             mov     R7, A
1E88 FF               7177             mov     R7, A
1E89 FF               7178             mov     R7, A
1E8A FF               7179             mov     R7, A
1E8B FF               7180             mov     R7, A
1E8C FF               7181             mov     R7, A
1E8D FF               7182             mov     R7, A
1E8E FF               7183             mov     R7, A
1E8F FF               7184             mov     R7, A
1E90 FF               7185             mov     R7, A
1E91 FF               7186             mov     R7, A
1E92 FF               7187             mov     R7, A
1E93 FF               7188             mov     R7, A
1E94 FF               7189             mov     R7, A
1E95 FF               7190             mov     R7, A
1E96 FF               7191             mov     R7, A
1E97 FF               7192             mov     R7, A
1E98 FF               7193             mov     R7, A
1E99 FF               7194             mov     R7, A
1E9A FF               7195             mov     R7, A
1E9B FF               7196             mov     R7, A
1E9C FF               7197             mov     R7, A
1E9D FF               7198             mov     R7, A
1E9E FF               7199             mov     R7, A
1E9F FF               7200             mov     R7, A
1EA0 FF               7201             mov     R7, A
1EA1 FF               7202             mov     R7, A
1EA2 FF               7203             mov     R7, A
1EA3 FF               7204             mov     R7, A
1EA4 FF               7205             mov     R7, A
1EA5 FF               7206             mov     R7, A
1EA6 FF               7207             mov     R7, A
1EA7 FF               7208             mov     R7, A
1EA8 FF               7209             mov     R7, A
1EA9 FF               7210             mov     R7, A
1EAA FF               7211             mov     R7, A
1EAB FF               7212             mov     R7, A
1EAC FF               7213             mov     R7, A
1EAD FF               7214             mov     R7, A
1EAE FF               7215             mov     R7, A
1EAF FF               7216             mov     R7, A
1EB0 FF               7217             mov     R7, A
1EB1 FF               7218             mov     R7, A
1EB2 FF               7219             mov     R7, A
1EB3 FF               7220             mov     R7, A
1EB4 FF               7221             mov     R7, A
1EB5 FF               7222             mov     R7, A
1EB6 FF               7223             mov     R7, A
1EB7 FF               7224             mov     R7, A
1EB8 FF               7225             mov     R7, A
1EB9 FF               7226             mov     R7, A
1EBA FF               7227             mov     R7, A
1EBB FF               7228             mov     R7, A
1EBC FF               7229             mov     R7, A
1EBD FF               7230             mov     R7, A
1EBE FF               7231             mov     R7, A
1EBF FF               7232             mov     R7, A
1EC0 FF               7233             mov     R7, A
1EC1 FF               7234             mov     R7, A
1EC2 FF               7235             mov     R7, A
1EC3 FF               7236             mov     R7, A
1EC4 FF               7237             mov     R7, A
1EC5 FF               7238             mov     R7, A
1EC6 FF               7239             mov     R7, A
1EC7 FF               7240             mov     R7, A
1EC8 FF               7241             mov     R7, A
1EC9 FF               7242             mov     R7, A
1ECA FF               7243             mov     R7, A
1ECB FF               7244             mov     R7, A
1ECC FF               7245             mov     R7, A
1ECD FF               7246             mov     R7, A
1ECE FF               7247             mov     R7, A
1ECF FF               7248             mov     R7, A
1ED0 FF               7249             mov     R7, A
1ED1 FF               7250             mov     R7, A
1ED2 FF               7251             mov     R7, A
1ED3 FF               7252             mov     R7, A
1ED4 FF               7253             mov     R7, A
1ED5 FF               7254             mov     R7, A
1ED6 FF               7255             mov     R7, A
1ED7 FF               7256             mov     R7, A
1ED8 FF               7257             mov     R7, A
1ED9 FF               7258             mov     R7, A
1EDA FF               7259             mov     R7, A
1EDB FF               7260             mov     R7, A
1EDC FF               7261             mov     R7, A
1EDD FF               7262             mov     R7, A
1EDE FF               7263             mov     R7, A
1EDF FF               7264             mov     R7, A
1EE0 FF               7265             mov     R7, A
1EE1 FF               7266             mov     R7, A
1EE2 FF               7267             mov     R7, A
1EE3 FF               7268             mov     R7, A
1EE4 FF               7269             mov     R7, A
1EE5 FF               7270             mov     R7, A
1EE6 FF               7271             mov     R7, A
1EE7 FF               7272             mov     R7, A
1EE8 FF               7273             mov     R7, A
1EE9 FF               7274             mov     R7, A
1EEA FF               7275             mov     R7, A
1EEB FF               7276             mov     R7, A
1EEC FF               7277             mov     R7, A
1EED FF               7278             mov     R7, A
1EEE FF               7279             mov     R7, A
1EEF FF               7280             mov     R7, A
1EF0 FF               7281             mov     R7, A
1EF1 FF               7282             mov     R7, A
1EF2 FF               7283             mov     R7, A
1EF3 FF               7284             mov     R7, A
1EF4 FF               7285             mov     R7, A
1EF5 FF               7286             mov     R7, A
1EF6 FF               7287             mov     R7, A
1EF7 FF               7288             mov     R7, A
1EF8 FF               7289             mov     R7, A
1EF9 FF               7290             mov     R7, A
1EFA FF               7291             mov     R7, A
1EFB FF               7292             mov     R7, A
1EFC FF               7293             mov     R7, A
1EFD FF               7294             mov     R7, A
1EFE FF               7295             mov     R7, A
1EFF FF               7296             mov     R7, A
1F00 FF               7297             mov     R7, A
1F01 FF               7298             mov     R7, A
1F02 FF               7299             mov     R7, A
1F03 FF               7300             mov     R7, A
1F04 FF               7301             mov     R7, A
1F05 FF               7302             mov     R7, A
1F06 FF               7303             mov     R7, A
1F07 FF               7304             mov     R7, A
                      7305     label31:
1F08 FF               7306             mov     R7, A
                      7307     label36:
1F09 FF               7308             mov     R7, A
1F0A FF               7309             mov     R7, A
1F0B FF               7310             mov     R7, A
1F0C FF               7311             mov     R7, A
1F0D FF               7312             mov     R7, A
1F0E FF               7313             mov     R7, A
                      7314     label59:
1F0F FF               7315             mov     R7, A
                      7316     label28:
1F10 FF               7317             mov     R7, A
1F11 FF               7318             mov     R7, A
1F12 FF               7319             mov     R7, A
1F13 FF               7320             mov     R7, A
1F14 FF               7321             mov     R7, A
1F15 FF               7322             mov     R7, A
1F16 FF               7323             mov     R7, A
1F17 FF               7324             mov     R7, A
1F18 FF               7325             mov     R7, A
1F19 FF               7326             mov     R7, A
1F1A FF               7327             mov     R7, A
1F1B FF               7328             mov     R7, A
1F1C FF               7329             mov     R7, A
1F1D FF               7330             mov     R7, A
1F1E FF               7331             mov     R7, A
1F1F FF               7332             mov     R7, A
1F20 FF               7333             mov     R7, A
1F21 FF               7334             mov     R7, A
1F22 FF               7335             mov     R7, A
1F23 FF               7336             mov     R7, A
1F24 FF               7337             mov     R7, A
1F25 FF               7338             mov     R7, A
1F26 FF               7339             mov     R7, A
1F27 FF               7340             mov     R7, A
1F28 FF               7341             mov     R7, A
1F29 FF               7342             mov     R7, A
1F2A FF               7343             mov     R7, A
1F2B FF               7344             mov     R7, A
1F2C FF               7345             mov     R7, A
1F2D FF               7346             mov     R7, A
1F2E FF               7347             mov     R7, A
1F2F FF               7348             mov     R7, A
1F30 FF               7349             mov     R7, A
1F31 FF               7350             mov     R7, A
1F32 FF               7351             mov     R7, A
1F33 FF               7352             mov     R7, A
1F34 FF               7353             mov     R7, A
1F35 FF               7354             mov     R7, A
1F36 FF               7355             mov     R7, A
1F37 FF               7356             mov     R7, A
1F38 FF               7357             mov     R7, A
1F39 FF               7358             mov     R7, A
1F3A FF               7359             mov     R7, A
1F3B FF               7360             mov     R7, A
1F3C FF               7361             mov     R7, A
1F3D FF               7362             mov     R7, A
1F3E FF               7363             mov     R7, A
1F3F FF               7364             mov     R7, A
1F40 FF               7365             mov     R7, A
1F41 FF               7366             mov     R7, A
1F42 FF               7367             mov     R7, A
1F43 FF               7368             mov     R7, A
1F44 FF               7369             mov     R7, A
1F45 FF               7370             mov     R7, A
1F46 FF               7371             mov     R7, A
1F47 FF               7372             mov     R7, A
1F48 FF               7373             mov     R7, A
1F49 FF               7374             mov     R7, A
1F4A FF               7375             mov     R7, A
1F4B FF               7376             mov     R7, A
1F4C FF               7377             mov     R7, A
1F4D FF               7378             mov     R7, A
1F4E FF               7379             mov     R7, A
1F4F FF               7380             mov     R7, A
1F50 FF               7381             mov     R7, A
1F51 FF               7382             mov     R7, A
1F52 FF               7383             mov     R7, A
1F53 FF               7384             mov     R7, A
1F54 FF               7385             mov     R7, A
1F55 FF               7386             mov     R7, A
1F56 FF               7387             mov     R7, A
1F57 FF               7388             mov     R7, A
1F58 FF               7389             mov     R7, A
1F59 FF               7390             mov     R7, A
1F5A FF               7391             mov     R7, A
1F5B FF               7392             mov     R7, A
1F5C FF               7393             mov     R7, A
1F5D FF               7394             mov     R7, A
1F5E FF               7395             mov     R7, A
1F5F FF               7396             mov     R7, A
1F60 FF               7397             mov     R7, A
1F61 FF               7398             mov     R7, A
1F62 FF               7399             mov     R7, A
1F63 FF               7400             mov     R7, A
1F64 FF               7401             mov     R7, A
1F65 FF               7402             mov     R7, A
1F66 FF               7403             mov     R7, A
1F67 FF               7404             mov     R7, A
1F68 FF               7405             mov     R7, A
1F69 FF               7406             mov     R7, A
1F6A FF               7407             mov     R7, A
1F6B FF               7408             mov     R7, A
1F6C FF               7409             mov     R7, A
1F6D FF               7410             mov     R7, A
1F6E FF               7411             mov     R7, A
1F6F FF               7412             mov     R7, A
1F70 FF               7413             mov     R7, A
1F71 FF               7414             mov     R7, A
1F72 FF               7415             mov     R7, A
1F73 FF               7416             mov     R7, A
1F74 FF               7417             mov     R7, A
1F75 FF               7418             mov     R7, A
1F76 FF               7419             mov     R7, A
1F77 FF               7420             mov     R7, A
1F78 FF               7421             mov     R7, A
1F79 FF               7422             mov     R7, A
1F7A FF               7423             mov     R7, A
1F7B FF               7424             mov     R7, A
1F7C FF               7425             mov     R7, A
1F7D FF               7426             mov     R7, A
1F7E FF               7427             mov     R7, A
1F7F FF               7428             mov     R7, A
1F80 FF               7429             mov     R7, A
1F81 FF               7430             mov     R7, A
1F82 FF               7431             mov     R7, A
1F83 FF               7432             mov     R7, A
1F84 FF               7433             mov     R7, A
1F85 FF               7434             mov     R7, A
1F86 FF               7435             mov     R7, A
1F87 FF               7436             mov     R7, A
1F88 FF               7437             mov     R7, A
1F89 FF               7438             mov     R7, A
1F8A FF               7439             mov     R7, A
1F8B FF               7440             mov     R7, A
1F8C FF               7441             mov     R7, A
1F8D FF               7442             mov     R7, A
1F8E FF               7443             mov     R7, A
1F8F FF               7444             mov     R7, A
1F90 FF               7445             mov     R7, A
1F91 FF               7446             mov     R7, A
1F92 FF               7447             mov     R7, A
1F93 FF               7448             mov     R7, A
1F94 FF               7449             mov     R7, A
1F95 FF               7450             mov     R7, A
1F96 FF               7451             mov     R7, A
1F97 FF               7452             mov     R7, A
1F98 FF               7453             mov     R7, A
1F99 FF               7454             mov     R7, A
1F9A FF               7455             mov     R7, A
1F9B FF               7456             mov     R7, A
1F9C FF               7457             mov     R7, A
1F9D FF               7458             mov     R7, A
1F9E FF               7459             mov     R7, A
1F9F FF               7460             mov     R7, A
1FA0 FF               7461             mov     R7, A
1FA1 FF               7462             mov     R7, A
1FA2 FF               7463             mov     R7, A
1FA3 FF               7464             mov     R7, A
1FA4 FF               7465             mov     R7, A
1FA5 FF               7466             mov     R7, A
1FA6 FF               7467             mov     R7, A
1FA7 FF               7468             mov     R7, A
1FA8 FF               7469             mov     R7, A
1FA9 FF               7470             mov     R7, A
1FAA FF               7471             mov     R7, A
1FAB FF               7472             mov     R7, A
1FAC FF               7473             mov     R7, A
1FAD FF               7474             mov     R7, A
1FAE FF               7475             mov     R7, A
1FAF FF               7476             mov     R7, A
1FB0 FF               7477             mov     R7, A
1FB1 FF               7478             mov     R7, A
1FB2 FF               7479             mov     R7, A
1FB3 FF               7480             mov     R7, A
1FB4 FF               7481             mov     R7, A
1FB5 FF               7482             mov     R7, A
1FB6 FF               7483             mov     R7, A
1FB7 FF               7484             mov     R7, A
1FB8 FF               7485             mov     R7, A
1FB9 FF               7486             mov     R7, A
1FBA FF               7487             mov     R7, A
1FBB FF               7488             mov     R7, A
1FBC FF               7489             mov     R7, A
1FBD FF               7490             mov     R7, A
1FBE FF               7491             mov     R7, A
1FBF FF               7492             mov     R7, A
1FC0 FF               7493             mov     R7, A
1FC1 FF               7494             mov     R7, A
1FC2 FF               7495             mov     R7, A
1FC3 FF               7496             mov     R7, A
1FC4 FF               7497             mov     R7, A
1FC5 FF               7498             mov     R7, A
1FC6 FF               7499             mov     R7, A
1FC7 FF               7500             mov     R7, A
1FC8 FF               7501             mov     R7, A
1FC9 FF               7502             mov     R7, A
1FCA FF               7503             mov     R7, A
1FCB FF               7504             mov     R7, A
1FCC FF               7505             mov     R7, A
1FCD FF               7506             mov     R7, A
1FCE FF               7507             mov     R7, A
1FCF FF               7508             mov     R7, A
1FD0 FF               7509             mov     R7, A
1FD1 FF               7510             mov     R7, A
1FD2 FF               7511             mov     R7, A
1FD3 FF               7512             mov     R7, A
1FD4 FF               7513             mov     R7, A
1FD5 FF               7514             mov     R7, A
1FD6 FF               7515             mov     R7, A
1FD7 FF               7516             mov     R7, A
1FD8 FF               7517             mov     R7, A
1FD9 FF               7518             mov     R7, A
1FDA FF               7519             mov     R7, A
1FDB FF               7520             mov     R7, A
1FDC FF               7521             mov     R7, A
1FDD FF               7522             mov     R7, A
1FDE FF               7523             mov     R7, A
1FDF FF               7524             mov     R7, A
1FE0 FF               7525             mov     R7, A
1FE1 FF               7526             mov     R7, A
1FE2 FF               7527             mov     R7, A
1FE3 FF               7528             mov     R7, A
1FE4 FF               7529             mov     R7, A
1FE5 FF               7530             mov     R7, A
1FE6 FF               7531             mov     R7, A
1FE7 FF               7532             mov     R7, A
1FE8 FF               7533             mov     R7, A
1FE9 FF               7534             mov     R7, A
1FEA FF               7535             mov     R7, A
1FEB FF               7536             mov     R7, A
1FEC FF               7537             mov     R7, A
1FED FF               7538             mov     R7, A
1FEE FF               7539             mov     R7, A
1FEF FF               7540             mov     R7, A
1FF0 FF               7541             mov     R7, A
1FF1 FF               7542             mov     R7, A
1FF2 FF               7543             mov     R7, A
1FF3 FF               7544             mov     R7, A
1FF4 FF               7545             mov     R7, A
1FF5 FF               7546             mov     R7, A
1FF6 FF               7547             mov     R7, A
1FF7 FF               7548             mov     R7, A
1FF8 FF               7549             mov     R7, A
1FF9 FF               7550             mov     R7, A
1FFA FF               7551             mov     R7, A
1FFB FF               7552             mov     R7, A
1FFC FF               7553             mov     R7, A
1FFD FF               7554             mov     R7, A
1FFE FF               7555             mov     R7, A
1FFF FF               7556             mov     R7, A
                      7557
                      7558             END
ASSEMBLY COMPLETE, NO ERRORS FOUND, NO WARNINGS


SYMBOL TABLE:
??MCU_8051_IDE . . . . . . . . . . .  N  NUMB  8051H  NOT USED
??VERSION. . . . . . . . . . . . . .  N  NUMB  0147H  NOT USED
AC . . . . . . . . . . . . . . . . .  B  ADDR  00D6H  NOT USED
ACC. . . . . . . . . . . . . . . . .  D  ADDR  00E0H  NOT USED
ACSR . . . . . . . . . . . . . . . .  D  ADDR  0097H  NOT USED
ADCF . . . . . . . . . . . . . . . .  D  ADDR  00F6H  NOT USED
ADCLK. . . . . . . . . . . . . . . .  D  ADDR  00F2H  NOT USED
ADCON. . . . . . . . . . . . . . . .  D  ADDR  00F3H  NOT USED
ADDH . . . . . . . . . . . . . . . .  D  ADDR  00F5H  NOT USED
ADDL . . . . . . . . . . . . . . . .  D  ADDR  00F4H  NOT USED
AUXR . . . . . . . . . . . . . . . .  D  ADDR  008EH  NOT USED
AUXR1. . . . . . . . . . . . . . . .  D  ADDR  00A2H  NOT USED
B. . . . . . . . . . . . . . . . . .  D  ADDR  00F0H
BDRCON . . . . . . . . . . . . . . .  D  ADDR  009BH  NOT USED
BDRCON_1 . . . . . . . . . . . . . .  D  ADDR  009CH  NOT USED
BRL. . . . . . . . . . . . . . . . .  D  ADDR  009AH  NOT USED
CCAP0H . . . . . . . . . . . . . . .  D  ADDR  00FAH  NOT USED
CCAP0L . . . . . . . . . . . . . . .  D  ADDR  00EAH  NOT USED
CCAP1H . . . . . . . . . . . . . . .  D  ADDR  00FBH  NOT USED
CCAP1L . . . . . . . . . . . . . . .  D  ADDR  00EBH  NOT USED
CCAP2H . . . . . . . . . . . . . . .  D  ADDR  00FCH  NOT USED
CCAP3H . . . . . . . . . . . . . . .  D  ADDR  00FDH  NOT USED
CCAP4H . . . . . . . . . . . . . . .  D  ADDR  00FEH  NOT USED
CCAPL2H. . . . . . . . . . . . . . .  D  ADDR  00FCH  NOT USED
CCAPL2L. . . . . . . . . . . . . . .  D  ADDR  00ECH  NOT USED
CCAPL3H. . . . . . . . . . . . . . .  D  ADDR  00FDH  NOT USED
CCAPL3L. . . . . . . . . . . . . . .  D  ADDR  00EDH  NOT USED
CCAPL4H. . . . . . . . . . . . . . .  D  ADDR  00FEH  NOT USED
CCAPL4L. . . . . . . . . . . . . . .  D  ADDR  00EEH  NOT USED
CCAPM0 . . . . . . . . . . . . . . .  D  ADDR  00DAH  NOT USED
CCAPM1 . . . . . . . . . . . . . . .  D  ADDR  00DBH  NOT USED
CCAPM2 . . . . . . . . . . . . . . .  D  ADDR  00DCH  NOT USED
CCAPM3 . . . . . . . . . . . . . . .  D  ADDR  00DDH  NOT USED
CCAPM4 . . . . . . . . . . . . . . .  D  ADDR  00DEH  NOT USED
CCF0 . . . . . . . . . . . . . . . .  B  ADDR  00D8H  NOT USED
CCF1 . . . . . . . . . . . . . . . .  B  ADDR  00D9H  NOT USED
CCF2 . . . . . . . . . . . . . . . .  B  ADDR  00DAH  NOT USED
CCF3 . . . . . . . . . . . . . . . .  B  ADDR  00DBH  NOT USED
CCF4 . . . . . . . . . . . . . . . .  B  ADDR  00DCH  NOT USED
CCON . . . . . . . . . . . . . . . .  D  ADDR  00D8H  NOT USED
CFINT. . . . . . . . . . . . . . . .  C  ADDR  0033H  NOT USED
CH . . . . . . . . . . . . . . . . .  D  ADDR  00F9H  NOT USED
CKCON. . . . . . . . . . . . . . . .  D  ADDR  008FH  NOT USED
CKCON0 . . . . . . . . . . . . . . .  D  ADDR  008FH  NOT USED
CKRL . . . . . . . . . . . . . . . .  D  ADDR  0097H  NOT USED
CKSEL. . . . . . . . . . . . . . . .  D  ADDR  0085H  NOT USED
CL . . . . . . . . . . . . . . . . .  D  ADDR  00E9H  NOT USED
CLKREG . . . . . . . . . . . . . . .  D  ADDR  008FH  NOT USED
CMOD . . . . . . . . . . . . . . . .  D  ADDR  00D9H  NOT USED
CPRL2. . . . . . . . . . . . . . . .  B  ADDR  00C8H  NOT USED
CR . . . . . . . . . . . . . . . . .  B  ADDR  00DEH  NOT USED
CT2. . . . . . . . . . . . . . . . .  B  ADDR  00C9H  NOT USED
CY . . . . . . . . . . . . . . . . .  B  ADDR  00D7H  NOT USED
DP0H . . . . . . . . . . . . . . . .  D  ADDR  0083H  NOT USED
DP0L . . . . . . . . . . . . . . . .  D  ADDR  0082H  NOT USED
DP1H . . . . . . . . . . . . . . . .  D  ADDR  0085H  NOT USED
DP1L . . . . . . . . . . . . . . . .  D  ADDR  0084H  NOT USED
DPH. . . . . . . . . . . . . . . . .  D  ADDR  0083H
DPL. . . . . . . . . . . . . . . . .  D  ADDR  0082H
EA . . . . . . . . . . . . . . . . .  B  ADDR  00AFH  NOT USED
EC . . . . . . . . . . . . . . . . .  B  ADDR  00AEH  NOT USED
EECON. . . . . . . . . . . . . . . .  D  ADDR  0096H  NOT USED
ES . . . . . . . . . . . . . . . . .  B  ADDR  00ACH  NOT USED
ET0. . . . . . . . . . . . . . . . .  B  ADDR  00A9H  NOT USED
ET1. . . . . . . . . . . . . . . . .  B  ADDR  00ABH  NOT USED
ET2. . . . . . . . . . . . . . . . .  B  ADDR  00ADH  NOT USED
EX0. . . . . . . . . . . . . . . . .  B  ADDR  00A8H  NOT USED
EX1. . . . . . . . . . . . . . . . .  B  ADDR  00AAH  NOT USED
EXEN2. . . . . . . . . . . . . . . .  B  ADDR  00CBH  NOT USED
EXF2 . . . . . . . . . . . . . . . .  B  ADDR  00CEH  NOT USED
EXTI0. . . . . . . . . . . . . . . .  C  ADDR  0003H  NOT USED
EXTI1. . . . . . . . . . . . . . . .  C  ADDR  0013H  NOT USED
F0 . . . . . . . . . . . . . . . . .  B  ADDR  00D5H  NOT USED
FE . . . . . . . . . . . . . . . . .  B  ADDR  009FH  NOT USED
IE . . . . . . . . . . . . . . . . .  D  ADDR  00A8H
IE0. . . . . . . . . . . . . . . . .  B  ADDR  0089H  NOT USED
IE1. . . . . . . . . . . . . . . . .  B  ADDR  008BH  NOT USED
INT0 . . . . . . . . . . . . . . . .  B  ADDR  00B2H  NOT USED
INT1 . . . . . . . . . . . . . . . .  B  ADDR  00B3H  NOT USED
IP . . . . . . . . . . . . . . . . .  D  ADDR  00B8H  NOT USED
IPH. . . . . . . . . . . . . . . . .  D  ADDR  00B7H  NOT USED
IPH0 . . . . . . . . . . . . . . . .  D  ADDR  00B7H  NOT USED
IPH1 . . . . . . . . . . . . . . . .  D  ADDR  00B3H  NOT USED
IPL0 . . . . . . . . . . . . . . . .  D  ADDR  00B8H  NOT USED
IPL1 . . . . . . . . . . . . . . . .  D  ADDR  00B2H  NOT USED
IT0. . . . . . . . . . . . . . . . .  B  ADDR  0088H  NOT USED
IT1. . . . . . . . . . . . . . . . .  B  ADDR  008AH  NOT USED
KBE. . . . . . . . . . . . . . . . .  D  ADDR  009DH  NOT USED
KBF. . . . . . . . . . . . . . . . .  D  ADDR  009EH  NOT USED
KBLS . . . . . . . . . . . . . . . .  D  ADDR  009CH  NOT USED
LABEL0 . . . . . . . . . . . . . . .  C  ADDR  0800H
LABEL1 . . . . . . . . . . . . . . .  C  ADDR  003BH
LABEL10. . . . . . . . . . . . . . .  C  ADDR  0E0EH
LABEL100 . . . . . . . . . . . . . .  C  ADDR  08FCH
LABEL101 . . . . . . . . . . . . . .  C  ADDR  08F7H
LABEL102 . . . . . . . . . . . . . .  C  ADDR  08EDH
LABEL103 . . . . . . . . . . . . . .  C  ADDR  090BH
LABEL104 . . . . . . . . . . . . . .  C  ADDR  0906H
LABEL105 . . . . . . . . . . . . . .  C  ADDR  0926H
LABEL106 . . . . . . . . . . . . . .  C  ADDR  0922H
LABEL107 . . . . . . . . . . . . . .  C  ADDR  093EH
LABEL108 . . . . . . . . . . . . . .  C  ADDR  0938H
LABEL109 . . . . . . . . . . . . . .  C  ADDR  0940H
LABEL11. . . . . . . . . . . . . . .  C  ADDR  000EH
LABEL110 . . . . . . . . . . . . . .  C  ADDR  0AD2H
LABEL111 . . . . . . . . . . . . . .  C  ADDR  0B4BH
LABEL112 . . . . . . . . . . . . . .  C  ADDR  091CH
LABEL113 . . . . . . . . . . . . . .  C  ADDR  0911H
LABEL114 . . . . . . . . . . . . . .  C  ADDR  0956H
LABEL115 . . . . . . . . . . . . . .  C  ADDR  0952H
LABEL116 . . . . . . . . . . . . . .  C  ADDR  0970H
LABEL117 . . . . . . . . . . . . . .  C  ADDR  096AH
LABEL118 . . . . . . . . . . . . . .  C  ADDR  0972H
LABEL119 . . . . . . . . . . . . . .  C  ADDR  094AH
LABEL12. . . . . . . . . . . . . . .  C  ADDR  0001H
LABEL120 . . . . . . . . . . . . . .  C  ADDR  09EDH
LABEL121 . . . . . . . . . . . . . .  C  ADDR  09B0H
LABEL122 . . . . . . . . . . . . . .  C  ADDR  0999H
LABEL123 . . . . . . . . . . . . . .  C  ADDR  0A13H
LABEL124 . . . . . . . . . . . . . .  C  ADDR  0986H
LABEL125 . . . . . . . . . . . . . .  C  ADDR  09DCH
LABEL126 . . . . . . . . . . . . . .  C  ADDR  09CEH
LABEL127 . . . . . . . . . . . . . .  C  ADDR  0A12H
LABEL128 . . . . . . . . . . . . . .  C  ADDR  0A04H
LABEL129 . . . . . . . . . . . . . .  C  ADDR  0A08H
LABEL13. . . . . . . . . . . . . . .  C  ADDR  0011H
LABEL130 . . . . . . . . . . . . . .  C  ADDR  09FEH
LABEL131 . . . . . . . . . . . . . .  C  ADDR  0A1EH
LABEL132 . . . . . . . . . . . . . .  C  ADDR  0A25H
LABEL133 . . . . . . . . . . . . . .  C  ADDR  0A18H
LABEL134 . . . . . . . . . . . . . .  C  ADDR  0A38H
LABEL135 . . . . . . . . . . . . . .  C  ADDR  0A42H
LABEL136 . . . . . . . . . . . . . .  C  ADDR  0BAAH
LABEL137 . . . . . . . . . . . . . .  C  ADDR  0A47H
LABEL138 . . . . . . . . . . . . . .  C  ADDR  0A50H
LABEL139 . . . . . . . . . . . . . .  C  ADDR  0AD0H
LABEL14. . . . . . . . . . . . . . .  C  ADDR  001FH
LABEL140 . . . . . . . . . . . . . .  C  ADDR  0B66H
LABEL141 . . . . . . . . . . . . . .  C  ADDR  0A5DH
LABEL142 . . . . . . . . . . . . . .  C  ADDR  0B50H
LABEL143 . . . . . . . . . . . . . .  C  ADDR  0A9DH
LABEL144 . . . . . . . . . . . . . .  C  ADDR  0AA0H
LABEL145 . . . . . . . . . . . . . .  C  ADDR  0AA6H
LABEL146 . . . . . . . . . . . . . .  C  ADDR  0AA7H
LABEL147 . . . . . . . . . . . . . .  C  ADDR  0AAAH
LABEL148 . . . . . . . . . . . . . .  C  ADDR  0AB2H
LABEL149 . . . . . . . . . . . . . .  C  ADDR  0AB5H
LABEL15. . . . . . . . . . . . . . .  C  ADDR  0173H
LABEL150 . . . . . . . . . . . . . .  C  ADDR  0C3DH
LABEL151 . . . . . . . . . . . . . .  C  ADDR  0AC3H
LABEL152 . . . . . . . . . . . . . .  C  ADDR  0AFDH
LABEL153 . . . . . . . . . . . . . .  C  ADDR  0AF6H
LABEL154 . . . . . . . . . . . . . .  C  ADDR  0ADCH
LABEL155 . . . . . . . . . . . . . .  C  ADDR  0B0DH
LABEL156 . . . . . . . . . . . . . .  C  ADDR  0B12H
LABEL157 . . . . . . . . . . . . . .  C  ADDR  0B08H
LABEL158 . . . . . . . . . . . . . .  C  ADDR  0B20H
LABEL159 . . . . . . . . . . . . . .  C  ADDR  0B26H
LABEL16. . . . . . . . . . . . . . .  C  ADDR  0004H
LABEL160 . . . . . . . . . . . . . .  C  ADDR  0B4AH
LABEL161 . . . . . . . . . . . . . .  C  ADDR  0B42H
LABEL162 . . . . . . . . . . . . . .  C  ADDR  0B3CH
LABEL163 . . . . . . . . . . . . . .  C  ADDR  0B52H
LABEL164 . . . . . . . . . . . . . .  C  ADDR  0B5EH
LABEL165 . . . . . . . . . . . . . .  C  ADDR  0C09H
LABEL166 . . . . . . . . . . . . . .  C  ADDR  0B74H
LABEL167 . . . . . . . . . . . . . .  C  ADDR  0B87H
LABEL168 . . . . . . . . . . . . . .  C  ADDR  0B9BH
LABEL169 . . . . . . . . . . . . . .  C  ADDR  0BDCH
LABEL17. . . . . . . . . . . . . . .  C  ADDR  0006H
LABEL170 . . . . . . . . . . . . . .  C  ADDR  0BD0H
LABEL171 . . . . . . . . . . . . . .  C  ADDR  0BBFH
LABEL172 . . . . . . . . . . . . . .  C  ADDR  0C03H
LABEL173 . . . . . . . . . . . . . .  C  ADDR  0BFFH
LABEL174 . . . . . . . . . . . . . .  C  ADDR  0C14H
LABEL175 . . . . . . . . . . . . . .  C  ADDR  0C29H
LABEL176 . . . . . . . . . . . . . .  C  ADDR  0C38H
LABEL177 . . . . . . . . . . . . . .  C  ADDR  0C40H
LABEL18. . . . . . . . . . . . . . .  C  ADDR  017FH
LABEL19. . . . . . . . . . . . . . .  C  ADDR  0238H
LABEL2 . . . . . . . . . . . . . . .  C  ADDR  0042H
LABEL20. . . . . . . . . . . . . . .  C  ADDR  0008H
LABEL21. . . . . . . . . . . . . . .  C  ADDR  0002H
LABEL22. . . . . . . . . . . . . . .  C  ADDR  024BH
LABEL23. . . . . . . . . . . . . . .  C  ADDR  1112H
LABEL24. . . . . . . . . . . . . . .  C  ADDR  001BH
LABEL25. . . . . . . . . . . . . . .  C  ADDR  0010H
LABEL26. . . . . . . . . . . . . . .  C  ADDR  0708H
LABEL27. . . . . . . . . . . . . . .  C  ADDR  0279H
LABEL28. . . . . . . . . . . . . . .  C  ADDR  1F10H
LABEL29. . . . . . . . . . . . . . .  C  ADDR  080EH
LABEL3 . . . . . . . . . . . . . . .  C  ADDR  0037H
LABEL30. . . . . . . . . . . . . . .  C  ADDR  033FH
LABEL31. . . . . . . . . . . . . . .  C  ADDR  1F08H
LABEL32. . . . . . . . . . . . . . .  C  ADDR  0112H
LABEL33. . . . . . . . . . . . . . .  C  ADDR  000AH
LABEL34. . . . . . . . . . . . . . .  C  ADDR  0308H
LABEL35. . . . . . . . . . . . . . .  C  ADDR  110DH
LABEL36. . . . . . . . . . . . . . .  C  ADDR  1F09H
LABEL37. . . . . . . . . . . . . . .  C  ADDR  043CH
LABEL38. . . . . . . . . . . . . . .  C  ADDR  0456H
LABEL39. . . . . . . . . . . . . . .  C  ADDR  0012H
LABEL4 . . . . . . . . . . . . . . .  C  ADDR  0062H
LABEL40. . . . . . . . . . . . . . .  C  ADDR  000FH
LABEL41. . . . . . . . . . . . . . .  C  ADDR  0508H
LABEL42. . . . . . . . . . . . . . .  C  ADDR  0465H
LABEL43. . . . . . . . . . . . . . .  C  ADDR  0013H
LABEL44. . . . . . . . . . . . . . .  C  ADDR  1500H
LABEL45. . . . . . . . . . . . . . .  C  ADDR  1304H
LABEL46. . . . . . . . . . . . . . .  C  ADDR  0546H
LABEL47. . . . . . . . . . . . . . .  C  ADDR  0019H
LABEL48. . . . . . . . . . . . . . .  C  ADDR  0567H
LABEL49. . . . . . . . . . . . . . .  C  ADDR  0015H
LABEL5 . . . . . . . . . . . . . . .  C  ADDR  0051H
LABEL50. . . . . . . . . . . . . . .  C  ADDR  0208H
LABEL51. . . . . . . . . . . . . . .  C  ADDR  1E11H
LABEL52. . . . . . . . . . . . . . .  C  ADDR  1111H
LABEL53. . . . . . . . . . . . . . .  C  ADDR  1108H
LABEL54. . . . . . . . . . . . . . .  C  ADDR  0009H
LABEL55. . . . . . . . . . . . . . .  C  ADDR  0663H
LABEL56. . . . . . . . . . . . . . .  C  ADDR  066EH
LABEL57. . . . . . . . . . . . . . .  C  ADDR  0684H
LABEL58. . . . . . . . . . . . . . .  C  ADDR  190AH
LABEL59. . . . . . . . . . . . . . .  C  ADDR  1F0FH
LABEL6 . . . . . . . . . . . . . . .  C  ADDR  0033H
LABEL60. . . . . . . . . . . . . . .  C  ADDR  041EH
LABEL61. . . . . . . . . . . . . . .  C  ADDR  111FH
LABEL62. . . . . . . . . . . . . . .  C  ADDR  0016H
LABEL63. . . . . . . . . . . . . . .  C  ADDR  0E11H
LABEL64. . . . . . . . . . . . . . .  C  ADDR  077FH
LABEL65. . . . . . . . . . . . . . .  C  ADDR  0C22H
LABEL66. . . . . . . . . . . . . . .  C  ADDR  084AH
LABEL67. . . . . . . . . . . . . . .  C  ADDR  0BB5H
LABEL68. . . . . . . . . . . . . . .  C  ADDR  0837H
LABEL69. . . . . . . . . . . . . . .  C  ADDR  0C19H
LABEL7 . . . . . . . . . . . . . . .  C  ADDR  0891H
LABEL70. . . . . . . . . . . . . . .  C  ADDR  0843H
LABEL71. . . . . . . . . . . . . . .  C  ADDR  0899H
LABEL72. . . . . . . . . . . . . . .  C  ADDR  088AH
LABEL73. . . . . . . . . . . . . . .  C  ADDR  088DH
LABEL74. . . . . . . . . . . . . . .  C  ADDR  0A6EH
LABEL75. . . . . . . . . . . . . . .  C  ADDR  086DH
LABEL76. . . . . . . . . . . . . . .  C  ADDR  08B1H
LABEL77. . . . . . . . . . . . . . .  C  ADDR  08E5H
LABEL78. . . . . . . . . . . . . . .  C  ADDR  091AH
LABEL79. . . . . . . . . . . . . . .  C  ADDR  0948H
LABEL8 . . . . . . . . . . . . . . .  C  ADDR  0608H
LABEL80. . . . . . . . . . . . . . .  C  ADDR  0978H
LABEL81. . . . . . . . . . . . . . .  C  ADDR  09BBH
LABEL82. . . . . . . . . . . . . . .  C  ADDR  0A45H
LABEL83. . . . . . . . . . . . . . .  C  ADDR  0A4EH
LABEL84. . . . . . . . . . . . . . .  C  ADDR  0A59H
LABEL85. . . . . . . . . . . . . . .  C  ADDR  0BF9H
LABEL86. . . . . . . . . . . . . . .  C  ADDR  0ABDH
LABEL87. . . . . . . . . . . . . . .  C  ADDR  0A39H
LABEL88. . . . . . . . . . . . . . .  C  ADDR  0B29H
LABEL89. . . . . . . . . . . . . . .  C  ADDR  08D9H
LABEL9 . . . . . . . . . . . . . . .  C  ADDR  0000H
LABEL90. . . . . . . . . . . . . . .  C  ADDR  08C6H
LABEL91. . . . . . . . . . . . . . .  C  ADDR  0B59H
LABEL92. . . . . . . . . . . . . . .  C  ADDR  08D1H
LABEL93. . . . . . . . . . . . . . .  C  ADDR  08CFH
LABEL94. . . . . . . . . . . . . . .  C  ADDR  08BBH
LABEL95. . . . . . . . . . . . . . .  C  ADDR  08DDH
LABEL96. . . . . . . . . . . . . . .  C  ADDR  08DBH
LABEL97. . . . . . . . . . . . . . .  C  ADDR  0904H
LABEL98. . . . . . . . . . . . . . .  C  ADDR  0A2DH
LABEL99. . . . . . . . . . . . . . .  C  ADDR  0B81H
OSCCON . . . . . . . . . . . . . . .  D  ADDR  0086H  NOT USED
OV . . . . . . . . . . . . . . . . .  B  ADDR  00D2H  NOT USED
P. . . . . . . . . . . . . . . . . .  B  ADDR  00D0H  NOT USED
P0 . . . . . . . . . . . . . . . . .  D  ADDR  0080H  NOT USED
P1 . . . . . . . . . . . . . . . . .  D  ADDR  0090H
P1M1 . . . . . . . . . . . . . . . .  D  ADDR  00D4H  NOT USED
P1M2 . . . . . . . . . . . . . . . .  D  ADDR  00E2H  NOT USED
P2 . . . . . . . . . . . . . . . . .  D  ADDR  00A0H
P3 . . . . . . . . . . . . . . . . .  D  ADDR  00B0H  NOT USED
P3M1 . . . . . . . . . . . . . . . .  D  ADDR  00D5H  NOT USED
P3M2 . . . . . . . . . . . . . . . .  D  ADDR  00E3H  NOT USED
P4 . . . . . . . . . . . . . . . . .  D  ADDR  00C0H  NOT USED
P4M1 . . . . . . . . . . . . . . . .  D  ADDR  00D6H  NOT USED
P4M2 . . . . . . . . . . . . . . . .  D  ADDR  00E4H  NOT USED
P5 . . . . . . . . . . . . . . . . .  D  ADDR  00E8H  NOT USED
PC . . . . . . . . . . . . . . . . .  B  ADDR  00BEH  NOT USED
PCON . . . . . . . . . . . . . . . .  D  ADDR  0087H  NOT USED
PPCL . . . . . . . . . . . . . . . .  B  ADDR  00BEH  NOT USED
PS . . . . . . . . . . . . . . . . .  B  ADDR  00BCH
PSL. . . . . . . . . . . . . . . . .  B  ADDR  00BCH  NOT USED
PSW. . . . . . . . . . . . . . . . .  D  ADDR  00D0H
PT0. . . . . . . . . . . . . . . . .  B  ADDR  00B9H  NOT USED
PT0L . . . . . . . . . . . . . . . .  B  ADDR  00B9H  NOT USED
PT1. . . . . . . . . . . . . . . . .  B  ADDR  00BBH  NOT USED
PT1L . . . . . . . . . . . . . . . .  B  ADDR  00BBH  NOT USED
PT2. . . . . . . . . . . . . . . . .  B  ADDR  00BDH  NOT USED
PT2L . . . . . . . . . . . . . . . .  B  ADDR  00BDH  NOT USED
PX0. . . . . . . . . . . . . . . . .  B  ADDR  00B8H  NOT USED
PX0L . . . . . . . . . . . . . . . .  B  ADDR  00B8H  NOT USED
PX1. . . . . . . . . . . . . . . . .  B  ADDR  00BAH  NOT USED
PX1L . . . . . . . . . . . . . . . .  B  ADDR  00BAH  NOT USED
RB8. . . . . . . . . . . . . . . . .  B  ADDR  009AH  NOT USED
RCAP2H . . . . . . . . . . . . . . .  D  ADDR  00CBH  NOT USED
RCAP2L . . . . . . . . . . . . . . .  D  ADDR  00CAH  NOT USED
RCLK . . . . . . . . . . . . . . . .  B  ADDR  00CDH  NOT USED
RD . . . . . . . . . . . . . . . . .  B  ADDR  00B7H  NOT USED
REN. . . . . . . . . . . . . . . . .  B  ADDR  009CH  NOT USED
RESET. . . . . . . . . . . . . . . .  C  ADDR  0000H  NOT USED
RI . . . . . . . . . . . . . . . . .  B  ADDR  0098H
RS0. . . . . . . . . . . . . . . . .  B  ADDR  00D3H  NOT USED
RS1. . . . . . . . . . . . . . . . .  B  ADDR  00D4H  NOT USED
RXD. . . . . . . . . . . . . . . . .  B  ADDR  00B0H  NOT USED
SADDR. . . . . . . . . . . . . . . .  D  ADDR  00A9H  NOT USED
SADDR_0. . . . . . . . . . . . . . .  D  ADDR  00A9H  NOT USED
SADDR_1. . . . . . . . . . . . . . .  D  ADDR  00AAH  NOT USED
SADEN. . . . . . . . . . . . . . . .  D  ADDR  00B9H  NOT USED
SADEN_0. . . . . . . . . . . . . . .  D  ADDR  00B9H  NOT USED
SADEN_1. . . . . . . . . . . . . . .  D  ADDR  00BAH  NOT USED
SBUF . . . . . . . . . . . . . . . .  D  ADDR  0099H
SCON . . . . . . . . . . . . . . . .  D  ADDR  0098H
SINT . . . . . . . . . . . . . . . .  C  ADDR  0023H  NOT USED
SM0. . . . . . . . . . . . . . . . .  B  ADDR  009FH  NOT USED
SM1. . . . . . . . . . . . . . . . .  B  ADDR  009EH  NOT USED
SM2. . . . . . . . . . . . . . . . .  B  ADDR  009DH  NOT USED
SP . . . . . . . . . . . . . . . . .  D  ADDR  0081H
SPCON. . . . . . . . . . . . . . . .  D  ADDR  00C3H  NOT USED
SPCR . . . . . . . . . . . . . . . .  D  ADDR  00D5H  NOT USED
SPDAT. . . . . . . . . . . . . . . .  D  ADDR  00C5H  NOT USED
SPDR . . . . . . . . . . . . . . . .  D  ADDR  0086H  NOT USED
SPSR . . . . . . . . . . . . . . . .  D  ADDR  00AAH  NOT USED
SPSTA. . . . . . . . . . . . . . . .  D  ADDR  00C4H  NOT USED
T0 . . . . . . . . . . . . . . . . .  B  ADDR  00B4H  NOT USED
T1 . . . . . . . . . . . . . . . . .  B  ADDR  00B5H  NOT USED
T2CON. . . . . . . . . . . . . . . .  D  ADDR  00C8H  NOT USED
T2MOD. . . . . . . . . . . . . . . .  D  ADDR  00C9H  NOT USED
TB8. . . . . . . . . . . . . . . . .  B  ADDR  009BH  NOT USED
TCLK . . . . . . . . . . . . . . . .  B  ADDR  00CCH  NOT USED
TCON . . . . . . . . . . . . . . . .  D  ADDR  0088H
TF0. . . . . . . . . . . . . . . . .  B  ADDR  008DH  NOT USED
TF1. . . . . . . . . . . . . . . . .  B  ADDR  008FH  NOT USED
TF2. . . . . . . . . . . . . . . . .  B  ADDR  00CFH  NOT USED
TH0. . . . . . . . . . . . . . . . .  D  ADDR  008CH
TH1. . . . . . . . . . . . . . . . .  D  ADDR  008DH
TH2. . . . . . . . . . . . . . . . .  D  ADDR  00CDH  NOT USED
TI . . . . . . . . . . . . . . . . .  B  ADDR  0099H
TIMER0 . . . . . . . . . . . . . . .  C  ADDR  000BH  NOT USED
TIMER1 . . . . . . . . . . . . . . .  C  ADDR  001BH  NOT USED
TIMER2 . . . . . . . . . . . . . . .  C  ADDR  002BH  NOT USED
TL0. . . . . . . . . . . . . . . . .  D  ADDR  008AH  NOT USED
TL1. . . . . . . . . . . . . . . . .  D  ADDR  008BH  NOT USED
TL2. . . . . . . . . . . . . . . . .  D  ADDR  00CCH  NOT USED
TMOD . . . . . . . . . . . . . . . .  D  ADDR  0089H
TR0. . . . . . . . . . . . . . . . .  B  ADDR  008CH  NOT USED
TR1. . . . . . . . . . . . . . . . .  B  ADDR  008EH  NOT USED
TR2. . . . . . . . . . . . . . . . .  B  ADDR  00CAH  NOT USED
TXD. . . . . . . . . . . . . . . . .  B  ADDR  00B1H  NOT USED
WDTCON . . . . . . . . . . . . . . .  D  ADDR  00A7H  NOT USED
WDTPRG . . . . . . . . . . . . . . .  D  ADDR  00A7H  NOT USED
WDTRST . . . . . . . . . . . . . . .  D  ADDR  00A6H  NOT USED
WR . . . . . . . . . . . . . . . . .  B  ADDR  00B6H  NOT USED
